(lp1
F1.671624995835649e-06
aF0
aF0.0011103559535651729
aF6.0322548034264958e-05
aF0
aF0
aF1.3318333178841165e-51
aF0
aF6.5017810169891899e-05
aF0.0001637430904805433
aF0
aF0
aF0
aF0.00012577025441214471
aF2.2919053355890991e-06
aF0.00027335225776694687
aF0.00010898517929505267
aF0
aF4.3084208022216799e-05
aF0
aF0
aF4.0419282483682639e-06
aF0
aF0
aF3.0804333853905775e-05
aF1.4077609953694697e-05
aF8.3105520549568529e-06
aF0
aF7.3614920447873858e-06
aF2.0946821999948342e-06
aF0.00034857181821485746
aF0
aF0
aF4.1377810125658948e-06
aF1.6173246249172738e-05
aF1.3713559435345734e-06
aF0
aF0
aF0
aF2.0448952899446e-05
aF0
aF0.000345227983358756
aF2.6651044092996516e-05
aF0
aF1.1552517959452322e-05
aF0
aF0
aF0
aF0
aF4.071492152952061e-06
aF0
aF2.7128466219141318e-05
aF0
aF1.1651261277265112e-05
aF0
aF0
aF0.018358421090114801
aF3.586300855260414e-05
aF1.3556664932447611e-05
aF0
aF0
aF0
aF0.00051984108764704256
aF0
aF0
aF0
aF1.9400337102963359e-06
aF0
aF0
aF0
aF3.0682059519385909e-05
aF0
aF0
aF0
aF0
aF1.0624337425168578e-05
aF0.0015864693399772198
aF0
aF0
aF6.4958724938214747e-05
aF5.4093285359220559e-05
aF8.126596379526581e-09
aF0
aF0
aF0
aF0
aF0.00012410098649834079
aF0
aF1.6531933871964722e-06
aF2.1626474674633475e-05
aF0
aF1.9109676212370037e-05
aF1.3816342963680316e-05
aF0.00027901326137933072
aF0
aF2.329764857529752e-05
aF0
aF2.7533415594209348e-06
aF0.00010838350546608859
aF0
aF0
aF0.00011347097721081297
aF3.2122819145183462e-05
aF0.00050768716564353626
aF0
aF0
aF0
aF1.0630065713767329e-05
aF0.00077697039760835042
aF0
aF0.00017170855422525845
aF0
aF6.7935867946107758e-06
aF6.4761703252825533e-05
aF4.7917954931897251e-05
aF0
aF0
aF2.7498420691857259e-05
aF0
aF9.3151925746665164e-06
aF0
aF0
aF7.6444769774110111e-05
aF0
aF0.00017191220466804513
aF0.00010580514987028923
aF3.8252335495459753e-06
aF0
aF0
aF0
aF0
aF0.00013246807474001583
aF5.7440293519373797e-05
aF1.1914678783036832e-51
aF2.4592858476665224e-05
aF0
aF5.2027628743481522e-05
aF1.5147796225527118e-05
aF6.7642032128190923e-05
aF0
aF0.00014598278296611717
aF3.7883804157896973e-05
aF4.9905465624344526e-06
aF0.0010662844644309148
aF0
aF1.7145760682358672e-05
aF0
aF0
aF4.0960080287004293e-05
aF9.8949327090496953e-07
aF2.2120036469718116e-05
aF0
aF0.00014292106937543062
aF0
aF0
aF0
aF0
aF6.9922524427739799e-05
aF2.5375527668836211e-05
aF0
aF0
aF0
aF1.8696347894265711e-05
aF0
aF0
aF8.482044680909293e-05
aF0
aF6.7632004720278102e-05
aF4.360253518517687e-05
aF0.00016453716430628524
aF3.3037314633931107e-05
aF0
aF4.2732223179244005e-06
aF0
aF7.1888255494862722e-06
aF5.5272353844702239e-05
aF7.5886515215799668e-05
aF0
aF7.8286781880621041e-05
aF4.5362704111449379e-05
aF0.00021010924970948572
aF3.5372121054303754e-05
aF0
aF3.3010272672505632e-05
aF0
aF0
aF0.00010962434605005906
aF0.005854292365857305
aF0
aF0.00011546355961017754
aF0
aF1.6597027825891199e-05
aF0
aF0.00067612976662555604
aF0
aF0
aF1.9963886471722523e-06
aF1.4904570148987325e-05
aF0
aF0
aF3.0276481552236169e-05
aF3.6961529821510246e-05
aF0
aF0
aF0
aF1.4139881229677657e-05
aF3.161996931481514e-06
aF3.0377344917669178e-05
aF3.752378470741742e-06
aF0
aF2.205388430477424e-05
aF0
aF7.4796191968986521e-06
aF0
aF5.3375238755318965e-05
aF0
aF3.6251918447173057e-06
aF0
aF0
aF0.001684841705777975
aF0
aF0
aF0
aF0
aF4.8105475210170491e-05
aF5.2058004493240607e-05
aF0.00018099517530059314
aF0
aF3.0441681715478896e-06
aF7.9307765276099982e-05
aF0
aF2.5122877038422007e-06
aF0
aF1.0259693485502728e-05
aF0
aF0
aF0.00020055829462898577
aF0.00017140064474122302
aF0
aF0
aF0
aF2.1776780414195317e-53
aF0.00052048699904376939
aF0
aF0
aF2.8324468901658724e-07
aF1.3001642254029014e-05
aF0
aF0
aF0.0001355495035261136
aF0
aF0
aF4.0195616425469321e-05
aF0
aF0.00013965811342119504
aF2.1348591126688021e-05
aF0
aF1.7381848739141575e-05
aF0
aF0
aF4.6956363127198916e-06
aF0.00033506704943912373
aF0
aF5.9068525652244779e-05
aF2.8636021771218012e-05
aF0
aF0
aF0
aF0
aF2.4545386280845783e-05
aF2.4783650956644742e-07
aF0
aF0
aF8.7857082268637956e-05
aF6.7628192235108056e-06
aF1.60668765636577e-05
aF0
aF1.261743440933832e-05
aF0
aF1.9287290409553972e-05
aF0
aF4.6851217023712311e-05
aF0
aF0
aF0
aF0
aF0.0016399479882375553
aF4.7366656949931189e-05
aF2.3529154544539798e-05
aF1.64465398044775e-05
aF0.00015382215118301838
aF0
aF0.001088525301300136
aF0
aF0
aF4.0647776413384525e-05
aF8.4339215177218999e-05
aF0
aF0.019062384739392882
aF1.6226600957760023e-05
aF9.4267270235257508e-05
aF6.9792090963364606e-05
aF9.8024610370399204e-06
aF1.3304821783534183e-51
aF0
aF0.00014249021532825338
aF7.5107800665300483e-06
aF0
aF0
aF1.4965718400745008e-05
aF0.00012896720857572783
aF3.0138410617980054e-06
aF0
aF3.2232405215334104e-06
aF8.8057791951669093e-05
aF0
aF3.4620060634779767e-05
aF0
aF5.6628168589059417e-06
aF0
aF0
aF0
aF0
aF1.2531749884426152e-06
aF0
aF0.00024786748533850466
aF0
aF0
aF4.6818581623188906e-05
aF0
aF0
aF0
aF0
aF0
aF0
aF5.6958606596460097e-06
aF2.0278940537414713e-05
aF0
aF1.1124940252156696e-05
aF0.00063377877406651769
aF0
aF0
aF0
aF0
aF0
aF0
aF1.3617425958781975e-05
aF0
aF3.4680222116749235e-05
aF1.0924493403423005e-05
aF0
aF2.2324938197695627e-05
aF0
aF4.8983777879230439e-05
aF8.7393135764046315e-06
aF1.9489233055685681e-06
aF0.00019692369599393327
aF0
aF0
aF0
aF0.0060432552967815923
aF0
aF0
aF3.1262966742102883e-06
aF0.00010772022047909291
aF0
aF0
aF0
aF3.4815080963910973e-06
aF0
aF0
aF0
aF0
aF1.0193863557042086e-05
aF0
aF0
aF0
aF0
aF0
aF4.2448578268090578e-06
aF0
aF0.030749670392963089
aF0
aF2.7460917377481489e-06
aF0
aF1.0420899765789879e-06
aF6.7337756673383398e-05
aF2.6241390170041758e-05
aF9.153762218600423e-05
aF0
aF0
aF0.00016137865278203451
aF0
aF1.7402297262008486e-05
aF0
aF0
aF0.00043604106523294618
aF1.7259624447470781e-05
aF0
aF0.00026148094356330992
aF1.0439796974785724e-08
aF0.00029433331162113447
aF0.00011183705702130092
aF3.5509022366802397e-06
aF0
aF0
aF4.3102210958516736e-05
aF2.7633560909142292e-05
aF9.099180253162457e-06
aF9.1275217873136036e-06
aF1.9656750968834785e-05
aF0
aF5.1826410177757802e-05
aF1.0241337526252343e-05
aF0.00090005595289308494
aF0
aF0
aF0
aF0
aF5.8634059070265053e-06
aF0
aF5.011096289771994e-06
aF0
aF0.00089176712220877924
aF1.1253088596986865e-06
aF2.725384827426128e-05
aF5.0109195910000419e-05
aF0
aF0
aF0
aF0.0008528329063481713
aF1.0334445781279035e-05
aF0
aF0
aF9.7361090919149784e-06
aF0
aF8.5829483815407084e-05
aF0
aF6.1375828811122978e-05
aF0
aF6.8518196325467516e-06
aF1.1924224412676914e-05
aF0
aF0
aF4.4868752773124418e-05
aF0
aF0
aF0
aF0
aF0
aF3.1923499045803907e-05
aF0
aF4.5144194032316446e-05
aF0
aF6.6660761648054849e-05
aF0
aF3.7963078967650821e-05
aF3.7878627079148698e-06
aF0.00016002007488726564
aF4.9144799451554458e-05
aF0
aF0
aF0.00057729120441289803
aF5.193389166006966e-06
aF0
aF1.0164880260762917e-06
aF0
aF7.9449002530169018e-05
aF0
aF2.8643371808149766e-05
aF2.0504912226372515e-06
aF6.8454559977872048e-06
aF0
aF0.00056245680934677972
aF0
aF6.4444525668866556e-09
aF0
aF0.0049526077864999653
aF0
aF0.00036537970610123796
aF0
aF9.5329172485595886e-06
aF0
aF0
aF0.0002445152339692635
aF0
aF0
aF0
aF7.938984485765158e-06
aF0
aF0.0010141687206542953
aF1.065362029248947e-06
aF0
aF1.4663172200145588e-05
aF0
aF8.8805665809726919e-05
aF1.205196927105378e-06
aF1.6984259826020903e-05
aF0
aF3.506980186982946e-05
aF0
aF1.072229614552149e-06
aF0
aF6.8006608481916558e-05
aF7.4908419573749323e-06
aF3.3228500857696525e-05
aF0
aF0
aF0
aF6.0435776316050686e-06
aF0.00090048351746088511
aF0
aF0
aF1.8301733565194484e-06
aF3.1153793919346068e-05
aF3.916190120354497e-05
aF0.00010230674573052412
aF1.1250938815715246e-05
aF0
aF1.0835394037624543e-05
aF0
aF0.00070017360669504772
aF1.5295142802279874e-05
aF0
aF4.6903392148292132e-05
aF0
aF0
aF0
aF0.00014758030787254407
aF0.00042706435238198514
aF0.00029802760904650916
aF0
aF4.3612191256841566e-07
aF0.00033165799832425482
aF0
aF1.8623959742275603e-05
aF0
aF0.00010804907827632705
aF0
aF8.1797207444449808e-06
aF0.00010569976406744169
aF8.4701073903646794e-05
aF0
aF0
aF5.3520546253550994e-05
aF7.7873879624810786e-06
aF0
aF0
aF3.6564532939093861e-05
aF0
aF0
aF0
aF3.4127157272242642e-06
aF0
aF0.0019555309909990676
aF0
aF2.0455280546384284e-05
aF0
aF1.586969543891508e-05
aF0.00010440685215011716
aF4.9677955992467818e-05
aF3.3449270642685107e-05
aF0
aF0.00017594060417882185
aF0
aF1.1486125705199474e-05
aF0
aF0.00015815141834498573
aF3.7358208558105816e-06
aF2.8738094741777369e-05
aF0
aF0
aF0
aF0.00049607219188380514
aF0
aF0.00042785824878916221
aF6.6203991664778671e-05
aF0
aF0.029910292713983266
aF4.8631294201590174e-06
aF0
aF8.6614514728123711e-05
aF0
aF6.3558204109665493e-05
aF0.00045160250294512181
aF0
aF0
aF0
aF0
aF0
aF0
aF0
aF9.4213745268979221e-06
aF3.3764755983917222e-06
aF0
aF0.00021822243596318386
aF0
aF3.8313624218404712e-05
aF0.00080265871817567663
aF0
aF0
aF0
aF0
aF0
aF0
aF0
aF0.00029237404409153622
aF0
aF3.737470068512655e-05
aF0.00049623584530264931
aF0
aF0.00011256953037489278
aF0
aF0
aF1.4491325095801755e-06
aF0.00046634460789303527
aF0
aF8.3176747581924091e-05
aF0
aF0
aF0.0001374849805306777
aF0.00021971490408536967
aF1.2116858772410846e-05
aF0
aF0
aF1.8191203183142748e-05
aF0
aF5.15757556777733e-05
aF0
aF4.1951915547281482e-06
aF1.774775483156824e-05
aF2.6699865883987631e-06
aF0
aF0
aF0
aF4.8315537722557434e-08
aF0.0034929815913117292
aF0
aF0
aF0
aF0
aF3.1367222978896299e-05
aF5.7340912381255685e-07
aF0
aF0
aF0
aF3.2183994939120522e-06
aF0
aF0
aF2.5696704820081397e-05
aF0
aF0
aF0
aF0.00031253763057248577
aF0
aF0
aF2.6543381382643758e-05
aF0
aF0.00018982668564941806
aF0
aF0
aF3.0661069207700358e-05
aF2.0661008703058822e-06
aF0
aF3.0901702150060216e-05
aF0
aF0
aF8.7790861453114515e-05
aF4.7249568429346581e-06
aF0
aF0
aF9.4034955908229469e-06
aF0
aF3.4537828973400854e-05
aF8.2712645226822726e-05
aF3.851065146587508e-07
aF4.9709245968731868e-06
aF0
aF0
aF0
aF8.5357710919111058e-06
aF0
aF3.010617717961991e-05
aF1.5660551612344678e-06
aF2.6928727272627157e-06
aF0
aF0
aF2.4283984308162737e-06
aF0
aF0
aF3.8343113242533212e-06
aF0
aF0
aF0
aF3.1900560331397881e-05
aF1.4096691769600003e-05
aF2.2049583124411257e-05
aF0
aF5.8589324292073822e-06
aF0
aF0.00029869726111147636
aF2.3255708303352121e-06
aF0.00020322471973414661
aF5.278792154833428e-52
aF0.00011266726045136516
aF6.9846317155596863e-06
aF0
aF0
aF4.2098817981538558e-05
aF1.0878353509642496e-05
aF0
aF1.1697500557871255e-06
aF5.2135797815623568e-06
aF1.2306865607357436e-05
aF0
aF3.3848475199444158e-05
aF0
aF0.00017182727637101618
aF0
aF9.6899670278735708e-06
aF0.00044147751799692
aF0
aF4.0504996133909004e-52
aF1.1296784054255926e-05
aF4.1191262443607698e-05
aF5.7657902523014384e-06
aF0
aF0
aF0
aF7.9738879209263239e-06
aF0
aF0
aF4.1197575096566105e-05
aF0
aF0
aF0
aF0
aF0
aF3.8885224863664274e-05
aF0
aF2.5138112585570537e-06
aF4.9241101675694568e-05
aF0
aF1.5433366911282413e-05
aF0
aF1.8341658299025134e-05
aF0
aF2.5263275404900346e-06
aF0
aF0.00013698162861833018
aF1.7634531010848703e-06
aF0.00098729646944944343
aF0
aF4.7263136970929178e-05
aF0
aF0
aF8.4264461985151582e-06
aF0
aF2.1789158747724656e-05
aF2.6729531755382383e-06
aF0.0007394009197719785
aF1.1405056858976051e-05
aF0
aF0
aF2.6197115803339252e-05
aF6.3005272989533211e-05
aF0
aF0
aF0
aF0
aF0.00039719908047064321
aF0
aF4.3296062961662631e-05
aF2.4194164773402888e-05
aF0
aF0
aF8.3611461485822371e-05
aF0
aF0
aF0
aF4.3329161548105749e-05
aF0
aF2.9296728679695305e-06
aF0
aF8.8712857829765866e-07
aF1.2650494267055669e-05
aF0.0003708811187558992
aF7.9131889879241924e-06
aF0.00078774219274647928
aF5.5682797477149434e-05
aF0.00036318421018925187
aF9.7347598151710286e-06
aF4.9918533874023046e-05
aF5.5768208525402272e-11
aF0.00021104112912227226
aF1.9006298907419606e-05
aF3.210096771407523e-06
aF0
aF3.4537155421923735e-05
aF7.799338739628252e-06
aF0.00051154851957417764
aF0
aF0
aF0
aF0.00012262694692094159
aF2.0418942612865875e-05
aF0.0019959458513130624
aF0
aF0
aF0
aF8.3977925004998649e-05
aF0
aF0
aF5.1599020762015993e-05
aF3.7275465772079168e-05
aF0
aF0
aF0
aF0
aF2.1600846193342007e-05
aF2.5933395147857706e-06
aF0.00010114180692985033
aF4.7800911796417032e-05
aF0
aF2.2243884119831247e-06
aF0
aF0.00022401015905486717
aF0
aF0.0001131977276802122
aF9.8235120153866088e-05
aF2.047840413663619e-05
aF1.2266443057430509e-05
aF2.2973455904277107e-05
aF0
aF0
aF0
aF3.5129158802555587e-05
aF2.4540191160562557e-05
aF0.00073180651420324324
aF7.200231634960927e-06
aF0
aF3.1145688245133621e-05
aF0.00032346753713989026
aF1.5485338174850405e-05
aF0
aF0
aF0
aF0
aF0.003500426265113266
aF0
aF0
aF1.0022470989229837e-05
aF0.00094547347403507601
aF1.0882517102168595e-51
aF0
aF0.0034156658953313161
aF0
aF0
aF8.5946162983516918e-06
aF0
aF0
aF6.9460876770468526e-05
aF0
aF2.8294368323674559e-05
aF0.00059002618887105498
aF5.3378706240365129e-05
aF0.00018743902207146317
aF9.5585660118622074e-06
aF0
aF0
aF8.5234317197881978e-05
aF0
aF0.00096949688760100195
aF0.0049912233173113572
aF6.163079806875479e-06
aF1.70094423494057e-05
aF0.00014146110864256704
aF3.3763473453361223e-07
aF8.8089731324474073e-05
aF0
aF0
aF0
aF9.4895729216882796e-06
aF0.00014618322041091915
aF1.2990282478296487e-05
aF1.806177438563267e-05
aF0
aF0
aF6.4918847659133875e-05
aF3.2512679470318114e-05
aF0
aF0
aF5.6287000525013496e-05
aF1.9213863902895906e-05
aF0.0042478057970994684
aF0
aF0
aF2.8821298157235894e-05
aF0
aF7.9570254843839271e-52
aF7.7777945676750935e-05
aF2.6220531462099389e-05
aF1.1001857520802263e-07
aF5.1567482301600102e-05
aF0
aF0.00026237004191925013
aF0
aF2.4224442048805832e-06
aF9.2889389651592175e-06
aF8.5802917837583866e-05
aF4.3761050935944724e-06
aF0
aF0.00017159912396478248
aF5.456904524446727e-05
aF0
aF0
aF0
aF0
aF8.4989143854108652e-07
aF0.0003065870847035643
aF0
aF2.4328329460384956e-05
aF0
aF0
aF0
aF0.00014126034691317588
aF0
aF0.00021007656020485366
aF0
aF4.1748299671609536e-05
aF1.0418765084825927e-51
aF0
aF8.5063794348495302e-08
aF0.0024304279617543422
aF0
aF3.1668481163024154e-05
aF0
aF7.0557924095403709e-05
aF0
aF0
aF6.5435816558817405e-06
aF1.1829609454344016e-05
aF0
aF0
aF0
aF0
aF1.108227504592035e-05
aF0
aF1.7619107503200069e-05
aF9.8949327090496953e-07
aF0
aF5.1680923762247416e-06
aF0.0002300948839072701
aF0.00082237193395240361
aF0.00052873107175238014
aF0
aF7.2528706272662969e-06
aF2.4929889090695097e-05
aF0.00021129419068171835
aF0
aF0
aF0
aF0
aF0
aF5.9897329716255369e-05
aF1.0879108310317955e-05
aF1.1330625855414949e-06
aF9.5510177523997996e-05
aF0
aF0
aF4.4080548984522302e-05
aF1.0047884654837173e-06
aF6.4886760023126824e-06
aF1.1351730319764257e-05
aF7.9889556964853578e-06
aF0.00065317698337885534
aF0
aF0
aF2.9039749545325691e-06
aF0
aF0.0018773137569107138
aF2.0533456073858765e-05
aF2.5409998426396003e-05
aF3.6195813893940784e-05
aF2.7557116483017019e-05
aF8.2604299049559967e-06
aF1.6807462349863636e-05
aF2.2296772965271156e-06
aF0
aF7.9318237528785966e-52
aF0
aF0
aF0
aF0
aF5.7303276123769936e-07
aF1.1795198231702903e-05
aF0
aF8.9885008186227134e-07
aF2.0100128122686821e-05
aF0
aF0
aF0
aF0
aF0
aF0.00030250129837178187
aF1.4547154770167038e-05
aF0
aF0
aF3.797313740491346e-05
aF0
aF2.2439015935419359e-05
aF6.3167169078396493e-05
aF1.1099474841422821e-05
aF2.0550628887726208e-05
aF0
aF0
aF0
aF0
aF0
aF4.4407684734523012e-05
aF0
aF0
aF0
aF0
aF0
aF0
aF4.1350095007424009e-05
aF0
aF0
aF0
aF0
aF0.0003461411610552837
aF4.7377047403542435e-53
aF3.1318632567796999e-05
aF4.2009751583396902e-05
aF2.692274343015692e-06
aF3.6371465406639362e-05
aF0
aF0
aF1.4172234161358036e-05
aF0
aF0.0010604887847420539
aF1.3162496561382794e-05
aF0
aF0
aF1.2130747525113351e-06
aF1.5937915861235182e-05
aF8.5296017183787018e-06
aF0
aF0
aF5.93121637985925e-06
aF0
aF5.6435313524460489e-07
aF0
aF0
aF1.9158788327991707e-05
aF1.7080249653181424e-05
aF1.1213197641660192e-05
aF0
aF9.5409826553870518e-07
aF9.3202232157430276e-06
aF0
aF0.00021801225408452356
aF0.00033126742171238989
aF0.00011674153445230708
aF5.0893535235983148e-05
aF2.5297395113905694e-06
aF2.1619546672342649e-05
aF0
aF0.00012355489995021098
aF9.2521829052958528e-06
aF3.6991912565288871e-05
aF0
aF0.0009704507884984964
aF4.4349366951225213e-08
aF1.3318333178841165e-51
aF0
aF0
aF0
aF6.481571216886573e-06
aF0
aF7.8840768461725725e-06
aF0
aF0
aF0.00023244375352952579
aF0.00020656866504608617
aF0.0012214893446484494
aF4.2771888425039673e-05
aF4.6732336420246585e-54
aF4.9579028506078866e-05
aF0
aF2.3351973072657774e-05
aF2.3045030197767877e-05
aF0.00011435881510342669
aF8.842760754176603e-06
aF0
aF8.7350646911307463e-05
aF0
aF2.0807513751128722e-05
aF0
aF2.5205279619896759e-05
aF0
aF0
aF1.4401127678712778e-06
aF0
aF0.00022518995722722399
aF6.5669414670967673e-05
aF0
aF4.5259780423416008e-07
aF7.0006305236088263e-06
aF0
aF0
aF0
aF0.00032494305256068086
aF0
aF0
aF2.4525954980976811e-05
aF5.9449057247830147e-06
aF5.8945247350360191e-05
aF0
aF4.9023142242082995e-05
aF0
aF1.6702115244787848e-05
aF5.3237692470923127e-06
aF0.00074413070457642831
aF3.0836162589008596e-05
aF1.3623615814172306e-05
aF0
aF3.0325948770722792e-05
aF0.00010465140734858441
aF2.9585917442373511e-05
aF0
aF2.2214020782837511e-08
aF0
aF0
aF0.00011275339510343019
aF1.2430669049868378e-05
aF9.7550926844910455e-06
aF0
aF6.6468976750585335e-05
aF2.0359601129072934e-05
aF0
aF2.6687420344361e-05
aF0
aF6.7543543806090808e-47
aF8.9243665476557905e-05
aF0.00027440819677215984
aF0
aF0
aF0
aF9.3668189740484286e-43
aF7.7920790027080484e-05
aF0
aF0
aF0
aF0
aF5.7727004515172048e-05
aF0.00011643317949949365
aF0
aF0.0001563365983880661
aF0
aF0
aF6.6422186702659418e-05
aF5.1825513179321933e-06
aF0
aF5.3910710110615131e-06
aF4.4177183376315679e-05
aF2.0588068444876625e-05
aF1.4491325095801755e-06
aF1.2294703519556966e-05
aF7.8532280844520653e-05
aF2.6345367086489609e-05
aF0
aF0
aF0.003019465782500454
aF0
aF0
aF0
aF5.0488172128952153e-05
aF6.7071175171417921e-05
aF0
aF0.00038851119151599628
aF1.2475557223312256e-05
aF0
aF0
aF3.6653063123642641e-05
aF0
aF0.00013126352941825759
aF8.4563609724275148e-06
aF6.2764220342852568e-06
aF4.9959170307995602e-06
aF0
aF9.829569693924825e-52
aF0
aF6.5911406235404649e-05
aF3.9350493567771398e-05
aF1.735262647584757e-05
aF4.2601736552728532e-05
aF0
aF0
aF3.0323116717244245e-05
aF0
aF0
aF0
aF0
aF0.00035850353736443337
aF0
aF0
aF0
aF1.2489361751440052e-05
aF0
aF1.8615101569930869e-05
aF0
aF0.002138810411171743
aF0
aF2.0380952760759151e-05
aF5.9677114397050343e-05
aF0
aF3.1568468206486148e-05
aF0.020836319839348669
aF1.2297408621917664e-05
aF0
aF1.0421421592535319e-05
aF0.00013757690713637929
aF0
aF0
aF0
aF0
aF1.8596242782309936e-06
aF2.3470410266634192e-06
aF4.6833032558067635e-05
aF4.2261005684701042e-05
aF0
aF0
aF0
aF0
aF0.00011760997723677424
aF2.4016042390843675e-05
aF0
aF0
aF0
aF6.9442791519141629e-05
aF0
aF0
aF7.2866709405332056e-08
aF1.2631902376060938e-05
aF0
aF0
aF0
aF0.0012609441235407336
aF0
aF0
aF0
aF8.8712857829765866e-07
aF6.2351736838921319e-06
aF6.45334274320886e-06
aF0
aF7.0020317749377624e-06
aF0
aF0
aF7.3501732476858845e-06
aF0
aF4.2335878807323994e-06
aF0
aF0
aF0.00037376966375944501
aF0
aF2.4628458202416846e-53
aF0
aF0
aF0
aF2.1075894101465897e-05
aF6.946546753390196e-05
aF0
aF0
aF0.00022647888107854737
aF3.3995224729668091e-05
aF2.1603576675051237e-05
aF0
aF0
aF1.2276218420717167e-05
aF0
aF0
aF0.0013512863670070393
aF0
aF0
aF7.9959983047813533e-05
aF0
aF0.00035877898996862745
aF0
aF0
aF1.2158402704903918e-51
aF2.2783193284889534e-09
aF5.1186122386559281e-06
aF0
aF8.6329709338990994e-05
aF1.2874777944633013e-05
aF3.8398955092879168e-52
aF0.0012213280756481603
aF0
aF0.0018759903453187223
aF0
aF0
aF0
aF2.3486768390041148e-05
aF0
aF3.9814492204626173e-05
aF0
aF0
aF0
aF0
aF0.00029430890375017763
aF0
aF0
aF1.9713006520126784e-05
aF0
aF4.4048019263625464e-06
aF0.00019052324327545336
aF0
aF1.0229092293980336e-05
aF0.00069901775768283652
aF0
aF0
aF1.0536776886132696e-05
aF9.7361090919149784e-06
aF0.00013434411023820401
aF0
aF5.5839376078963563e-06
aF0.00057360383746501932
aF0
aF0
aF1.1811298004210848e-05
aF1.7302773527179902e-05
aF0
aF0.00074931218629445818
aF0.013145337555795807
aF8.469865220756158e-05
aF0
aF1.4908078703060897e-05
aF0
aF0
aF0.00014439842568578624
aF0
aF0
aF2.2406463137290575e-05
aF4.7215619971677905e-05
aF0.00061384222523418208
aF0
aF0
aF0
aF1.4407809367933768e-05
aF3.7045809078933836e-05
aF5.3107679159003425e-06
aF0.00040315141100079587
aF0
aF0.0021201706176425632
aF0
aF1.008296295193196e-05
aF5.1531507164877203e-06
aF4.0662135384521715e-06
aF3.2902983710425611e-06
aF1.1134308187071473e-05
aF0
aF3.705566859053191e-06
aF0
aF0
aF3.5831186164883147e-05
aF0.00060355184380542703
aF2.3712450931502349e-05
aF0
aF0.00017955098461872168
aF4.3252579284811497e-05
aF0.00048789400021590477
aF8.441055465596665e-05
aF0
aF0
aF0
aF0
aF1.6085941703684477e-06
aF0
aF0
aF0
aF0
aF0
aF9.4771513524910117e-06
aF0
aF0.00035881195361809823
aF0.00042348566293077828
aF0
aF6.8589708476517568e-06
aF3.4759768425139895e-05
aF6.8374561857025186e-05
aF0
aF0
aF1.7070041914639058e-05
aF0
aF0
aF0.0014708917697638399
aF6.28219919208523e-05
aF9.5169412210013718e-05
aF0
aF0
aF0
aF1.7404713146488058e-05
aF3.1164449371735368e-05
aF4.7408999118565663e-05
aF3.34578962513429e-06
aF0
aF0
aF9.4528717312418706e-05
aF1.9614972862907943e-43
aF0
aF1.393274730044193e-07
aF0
aF0
aF0
aF2.5847621523953934e-05
aF6.9885743170789244e-05
aF0
aF0
aF1.8704686320482216e-05
aF0.00086421997812812044
aF0
aF0
aF0
aF0
aF0
aF0
aF6.7586608906858938e-06
aF9.718198625453639e-05
aF9.5001752833973524e-07
aF0.00042428505757035961
aF1.1971386441001894e-05
aF0
aF3.0668152858382559e-05
aF3.4963648094210159e-05
aF1.6166400772142924e-05
aF6.6967823457491589e-06
aF7.5631547133434975e-06
aF0.00022389988414420081
aF2.9706082178012974e-06
aF0.00038884188389596495
aF0
aF0
aF0
aF0
aF0.00011726649365090178
aF0
aF2.1590687919912175e-05
aF0.0030161722099491489
aF0
aF1.4505742182440733e-05
aF7.2858439700432603e-06
aF0
aF1.6483665496362615e-05
aF5.5180224027515809e-06
aF0
aF0
aF1.8711842447473731e-05
aF0
aF0
aF1.7607761486580808e-05
aF0
aF0
aF0
aF0
aF0.0020814642173020781
aF0.0002012234212908446
aF2.8479303298230048e-06
aF8.7238311208727273e-06
aF0.010529763989272292
aF8.7604172083117595e-06
aF5.6518169390519037e-05
aF2.8133629803648167e-05
aF0
aF0
aF0
aF0.00071760878475396884
aF7.344020199781263e-05
aF0
aF0
aF4.5095207659359849e-05
aF0
aF0
aF0.00023677405033669988
aF0
aF1.6432616596352755e-06
aF4.1697191409646643e-06
aF3.4954690511176291e-05
aF0
aF0
aF0
aF0
aF0
aF0
aF0
aF4.8978237577245025e-05
aF0.00079960966623222158
aF2.5403866909712185e-05
aF0.00042879097686844445
aF2.2222018363966846e-05
aF0
aF0
aF5.1373371613193386e-06
aF1.1170576217992879e-05
aF2.0438823989788524e-05
aF0
aF4.9093616680005364e-06
aF0.0040068639966274822
aF0
aF0
aF0
aF4.1064784099904456e-05
aF0
aF0
aF0
aF0
aF0
aF0
aF6.5305236952824114e-06
aF0.00019616183691385629
aF4.7160989946522599e-07
aF0
aF0.00010819250892606519
aF0
aF0
aF2.4830222630113256e-05
aF0
aF1.9514948058816571e-06
aF0
aF0.00027817657085137397
aF0
aF1.4111609033050352e-05
aF0.00059378449594235682
aF0
aF1.8422228099161505e-05
aF6.9628841752838854e-06
aF4.3516148445997385e-05
aF0
aF1.8424347300860503e-05
aF0.00010435752487889156
aF0
aF0
aF0.0038551994852322391
aF3.38203627598659e-05
aF1.5620674068820055e-05
aF0
aF0.00031475592403914197
aF0
aF4.2382052705880894e-05
aF4.3422672112290104e-05
aF2.140638717995009e-05
aF0
aF0.00035267354412644878
aF0
aF8.9906975176480422e-05
aF3.9868803693739593e-06
aF3.8341921944629036e-05
aF0
aF0
aF0
aF0
aF0
aF0
aF0
aF3.8679158318140045e-05
aF0
aF1.5362024403398982e-05
aF0.00040681639564680325
aF0
aF0
aF0
aF0
aF5.9816403422913948e-07
aF0
aF0
aF6.9429991610096004e-06
aF0
aF0.00022731981859848004
aF1.3186331572274962e-05
aF1.5620674068820055e-05
aF3.1398327389801284e-05
aF0
aF0.0003472027533723149
aF0
aF4.3767002452758282e-05
aF0
aF3.3439843504335535e-05
aF0
aF0.00019458238514341312
aF1.5304795140187133e-05
aF0.00013295627437502852
aF4.6243732947970089e-05
aF0.0004408958706382026
aF5.4366400455199191e-06
aF0
aF0.0028302201292137179
aF0
aF0
aF0
aF0
aF0.00018393700961141432
aF0
aF4.8402559989640928e-06
aF1.9514948058816571e-06
aF2.1530417607079192e-05
aF5.5070370113597457e-05
aF0
aF1.4947800774885704e-05
aF0
aF0.0014666165038755678
aF2.995742295665469e-05
aF0
aF0.0002984047169205224
aF7.8980147726163878e-06
aF0.0011353800338781985
aF4.375968819018542e-05
aF0
aF0
aF0
aF0
aF0
aF0.00029472414940614425
aF8.397772355165697e-05
aF1.8922605098033602e-06
aF2.5877095161436153e-06
aF6.3289928901009033e-05
aF0.00040223463463008894
aF0
aF0.00012967666573357033
aF0
aF0
aF9.1221219785816824e-05
aF5.9158819108198436e-05
aF0
aF0.00052433391929052812
aF3.1022131817587291e-05
aF5.401821651822642e-05
aF0
aF0
aF0.00050533374018126725
aF0.0044252501999376024
aF0
aF7.2451070521496711e-05
aF4.2513895410832758e-06
aF0
aF7.2042577657081605e-05
aF3.1805760793725577e-11
aF3.6922947375913371e-05
aF0
aF0
aF0.012104964589548142
aF0.00053845193268359627
aF0
aF2.2028065902317308e-05
aF0.001196580681699862
aF0
aF6.2653997983306881e-06
aF0
aF0
aF6.7725284676351468e-05
aF1.3318333178841165e-51
aF8.9481082362868471e-05
aF0
aF6.0703986565043321e-05
aF0
aF0
aF6.3371904054194599e-06
aF0
aF0
aF0
aF0
aF0
aF0
aF1.279624494697778e-05
aF0
aF1.299787601011308e-51
aF0
aF1.1210672351738515e-05
aF7.8714711123533722e-06
aF3.9217225320581516e-05
aF0.00024756678554330695
aF1.1040627695058858e-05
aF0.00053851064745334622
aF4.5468836677650514e-05
aF0.00032157767632702967
aF7.5944870741149285e-05
aF2.1767477015482144e-05
aF0.0003300150116866231
aF0
aF0
aF0.00045104122059176361
aF0
aF0
aF2.6995519500446714e-05
aF9.3978357697383812e-05
aF4.1170724705043311e-05
aF6.694732028858734e-05
aF0
aF0
aF0.0004265850852464
aF0
aF3.0237409903401371e-05
aF5.7947640726647626e-06
aF2.9395994893687388e-06
aF0
aF0.00015944729071423611
aF1.5866129384022122e-05
aF5.864479506195997e-05
aF2.0457938658137339e-05
aF0
aF9.6695220559261767e-06
aF2.5899574366139459e-05
aF1.6059901103116755e-05
aF0
aF1.8079765783566487e-08
aF0.001861759713214273
aF2.3691011996182986e-06
aF0.00010370697402292778
aF1.6622941706624275e-05
aF0
aF1.0424812411916681e-07
aF0
aF0
aF1.8082161595961494e-06
aF4.8099419397273327e-05
aF1.4872922926795742e-05
aF7.3178147192915015e-06
aF1.3318333178841165e-51
aF0
aF9.1175385750825644e-05
aF2.7788715237584116e-52
aF0
aF1.1664823625891173e-05
aF0
aF6.7806363246150159e-63
aF0
aF0
aF2.5932358805123388e-05
aF1.6699432205218325e-05
aF9.145530258578882e-06
aF5.4159600501727343e-52
aF2.6139286465923674e-06
aF0.00063618061624785068
aF0
aF5.2550681827360058e-05
aF1.6530289825880349e-05
aF0
aF0
aF0
aF0
aF0
aF0
aF0
aF0
aF0.00010012104092584225
aF4.5740480244442499e-05
aF0
aF4.6077066522126188e-06
aF5.0216256230838015e-05
aF0
aF0
aF2.5357673672114846e-05
aF1.6366585365306664e-05
aF0
aF0
aF2.5230885303754277e-05
aF9.660383815450387e-06
aF2.9993091699396929e-05
aF1.6915162516994226e-05
aF7.7523868482312453e-07
aF0
aF7.7208762263490619e-05
aF0
aF7.5185590310668137e-05
aF0.011431309300743941
aF6.7949141464674863e-05
aF2.7302649554774223e-05
aF1.5259402767333232e-05
aF0
aF0
aF0
aF0
aF0.00059493413182366383
aF0.0012940667499737877
aF0
aF0
aF0
aF0
aF0.0062699079623785622
aF0.00012098542491246182
aF0
aF0
aF1.3084633381859875e-05
aF0
aF9.6205874871745301e-52
aF4.0349934946806765e-05
aF2.0904942773799124e-05
aF0.00091860014325950798
aF0
aF0
aF1.5380871396481006e-05
aF2.3472195126492229e-05
aF7.5791453777529333e-06
aF3.0763203955975667e-05
aF0
aF6.1148770326131885e-06
aF0.00023782615698585193
aF2.5728493821507627e-05
aF2.7035151712137191e-05
aF7.7316249042451984e-07
aF7.5942324618067872e-07
aF0
aF1.1139935126976992e-05
aF0
aF0
aF0
aF0.00096816126209005196
aF0
aF0
aF0.0001111153685119273
aF0.00012313307572901278
aF8.353951856855248e-05
aF0.00075888202326458655
aF1.7342307281641024e-06
aF0.00028263554790958017
aF5.0459430309379982e-06
aF0.00016049660709136236
aF0.00032762195313630588
aF0
aF0.0001009555174764151
aF0
aF0
aF1.3311609800926502e-51
aF0
aF0
aF0
aF0
aF1.533985221750087e-05
aF6.045413767665524e-05
aF0
aF0.000258408535056936
aF0
aF0
aF0
aF0.00058302188172802054
aF8.283209176637117e-06
aF0
aF0
aF2.8068549092771373e-05
aF0.0070874726050436654
aF0
aF2.1916790514947215e-05
aF0
aF0
aF0
aF0
aF4.8037596526493188e-05
aF0
aF3.1166523843024562e-06
aF3.5830075555613538e-05
aF0
aF6.027613992993132e-07
aF0.00049766313015501466
aF0.00046914325894203068
aF0
aF3.4783164705872444e-05
aF0.00046254141774649117
aF0.00055810877196549942
aF0
aF4.3543053723819562e-05
aF0
aF0
aF0
aF0
aF5.5840282387825682e-05
aF0
aF0
aF0
aF0
aF0.012289530822157186
aF1.1691229633596296e-05
aF0.0001767929177747745
aF0
aF7.6171485042128071e-05
aF0.0010554332075579525
aF0
aF3.0006237814049655e-06
aF0
aF0
aF0
aF1.6278995812346485e-05
aF8.4575014011534848e-05
aF7.2597114873473233e-06
aF2.8697023719390818e-07
aF4.5677132236390191e-06
aF0
aF0
aF7.5902314841117037e-05
aF1.2042049173367118e-51
aF0.00016427775991508818
aF5.767420585692095e-06
aF0
aF7.2490456209304092e-06
aF4.9114467193534277e-05
aF7.2895377369373813e-05
aF0.00024722167132092018
aF0.00065937491597460325
aF2.4784613774275675e-08
aF0
aF2.4100707120972602e-05
aF0
aF0
aF2.3612126235457685e-05
aF5.6737863327239608e-05
aF0.0021365339684118142
aF1.2338260057941193e-05
aF4.8037574336633053e-06
aF2.1385752268340656e-06
aF0
aF0
aF0
aF0.0003708438128009601
aF0
aF0
aF0
aF0
aF0
aF0
aF0.00028799078967118284
aF0
aF2.6755792347819813e-05
aF1.051704055469773e-05
aF8.0432886228613801e-05
aF0
aF0
aF0.00010506693466339192
aF0.00010174052440759553
aF0
aF0
aF0.00061258781146605629
aF2.2229975961378194e-05
aF2.3820231716950233e-06
aF0.00012464264436938332
aF0.00017043950873190891
aF0
aF0
aF0
aF2.8383909671221656e-05
aF0.00025135174765316987
aF0
aF0
aF2.140638717995009e-05
aF1.1674142168764698e-52
aF4.9495311540744455e-05
aF4.9119290191813355e-08
aF5.797672314771011e-08
aF0
aF3.1605447188969997e-05
aF5.3641687805425208e-05
aF5.3578166934837694e-06
aF8.5670431206690619e-05
aF0.0001172211975794738
aF0
aF0
aF0
aF0
aF0
aF0
aF0
aF0
aF0
aF3.1785456826323863e-07
aF0.0002210221562690973
aF1.4959036940965049e-05
aF6.0625219050001882e-06
aF1.1740516493477307e-05
aF0
aF0
aF0
aF6.2562277708579242e-06
aF1.7383892611812516e-06
aF0
aF2.1659964454721148e-06
aF0
aF5.3476427704736106e-07
aF2.8325743988898836e-05
aF0
aF1.3551189704492461e-05
aF3.657392425140094e-06
aF0
aF9.6705513254096508e-05
aF0
aF0
aF0
aF0
aF0
aF0
aF1.2742320943047432e-06
aF0
aF2.5416412010247295e-05
aF0
aF0
aF0.0006113390955254811
aF0
aF0.00022713073305587379
aF1.3318333178841165e-51
aF1.7582349119703769e-06
aF1.6094172176690371e-05
aF0.0010439896057471338
aF3.3445504777558557e-06
aF0
aF0.0013393084489369302
aF3.7754104381156724e-05
aF0
aF6.9226223048857993e-05
aF2.6190822287820315e-05
aF0
aF0
aF0
aF0
aF0
aF0
aF0
aF0
aF4.2015855399606274e-05
aF0
aF1.9854299371902166e-05
aF0
aF3.0391333774081044e-05
aF0.000123998683889833
aF0
aF0.0010308444764193375
aF0.00034995546274430164
aF0
aF0
aF0
aF1.0882517102168657e-51
aF3.9455178778748235e-05
aF2.4590898139496592e-05
aF0
aF1.9064926463412415e-05
aF6.0112122546908764e-06
aF0
aF5.6153445715841089e-05
aF9.4702719079416104e-05
aF0.00076932122246930882
aF0
aF3.1919933704069862e-06
aF0
aF0
aF3.6187921289550142e-10
aF0
aF0
aF0
aF0
aF0
aF0.00039937182685555325
aF0
aF0
aF0
aF2.9216980585661714e-05
aF2.0064207509268866e-06
aF8.003998350028517e-05
aF0
aF1.7953320896007029e-06
aF0.00043227976372615018
aF2.630301252676267e-05
aF0
aF0
aF0
aF0
aF0
aF0.00017286395186227104
aF5.7647795173681489e-06
aF6.2814567552513484e-06
aF0
aF5.1184111321700661e-05
aF0.00013429528071887204
aF0.00014138447649514324
aF2.9520664947230292e-05
aF0
aF0
aF4.3272222683414109e-05
aF0
aF0
aF2.1689641517718632e-05
aF0
aF0.00010466842502697184
aF8.8738799777182215e-52
aF0
aF0
aF0.00044963061902454605
aF0
aF0
aF0.00013507218517195719
aF0
aF0.00021613261902234205
aF0
aF7.9661590262241545e-05
aF0
aF6.6683064536900453e-05
aF0
aF0.00051039406312381678
aF0
aF4.7708068328960477e-06
aF0
aF0
aF0
aF1.3318333178841165e-51
aF0
aF3.2703371396330982e-05
aF0
aF0
aF0
aF0
aF0.00013138692773966999
aF0.00022975484868376195
aF0
aF0
aF3.244508273608209e-05
aF0.00063617554365110742
aF0
aF0
aF0
aF0
aF0
aF6.5197090349065041e-05
aF0
aF8.197481094156171e-06
aF1.3318333178841165e-51
aF2.2764271304403155e-06
aF7.4211019634670273e-06
aF0
aF8.4969541502868579e-05
aF3.525974867925122e-05
aF1.5208905371304365e-05
aF6.3969129660784652e-06
aF0
aF0
aF8.5929349468246212e-06
aF0
aF0
aF2.5863857591455271e-06
aF0
aF9.8895503872000026e-05
aF0.0056985762926216018
aF1.7604947930706257e-05
aF9.725690386421899e-05
aF1.838762626829355e-05
aF0
aF2.8774527682743448e-06
aF0
aF0
aF3.8621131494106051e-06
aF3.3164860994020698e-05
aF2.1886920044584775e-05
aF9.6571885864383878e-07
aF1.7440250128327514e-05
aF1.1301950070696617e-05
aF2.1515163809336897e-05
aF0
aF0
aF0
aF0
aF0
aF0.0025328968806876671
aF0
aF0.00046737071086882625
aF3.0788438528336728e-05
aF0.0055656747024610126
aF2.2029396867440908e-06
aF3.627970482384093e-05
aF8.8015100128823322e-07
aF0.00016237709044028968
aF0.00029845380440704581
aF0.00029055661376387948
aF0
aF0
aF4.0208198897310946e-06
aF0
aF0
aF8.7171752094797393e-05
aF0
aF1.3110365690415317e-06
aF3.183286586715517e-06
aF0.000312543424759279
aF0
aF0
aF0
aF3.8359435686970812e-05
aF0
aF2.4157441575787813e-05
aF0.00015042416394249109
aF5.5491602141393639e-05
aF0
aF0
aF0
aF8.8100775483063669e-05
aF0
aF0
aF0
aF0
aF0.00021380931401622299
aF0.00025651583691334941
aF0
aF5.7920861163392986e-06
aF2.465559996055218e-06
aF0
aF9.9311876592445606e-07
aF0
aF3.6996228709538114e-05
aF7.8541401001647909e-05
aF4.0399930777001494e-06
aF1.6698218744150192e-05
aF0
aF0
aF5.5223268094632651e-05
aF0.00083547089448486741
aF0
aF0.00016835292442535723
aF0
aF0
aF0
aF0
aF0
aF3.2043404721200013e-05
aF4.0197767442529903e-05
aF6.979341830250746e-05
aF5.7181570693755818e-06
aF0
aF0.00010842269040075404
aF1.6282074406432724e-05
aF0.0016930975275167822
aF7.1402724144171539e-05
aF2.1192465585419233e-06
aF5.5111867899133583e-06
aF8.310349011765389e-06
aF8.1595119619456017e-05
aF0
aF0.00025749821069533319
aF0.0014263559283134151
aF0
aF0
aF0
aF0.00025222078726650269
aF4.686524259315242e-11
aF0
aF0.0002006637823428691
aF5.0235312505229704e-05
aF0
aF1.3311609800926502e-51
aF0.00087505594017731861
aF0.00086165412946598709
aF0
aF1.9466696595742124e-05
aF1.0882517102168595e-51
aF1.7215982945837501e-51
aF4.2128739996523023e-05
aF0
aF0
aF0
aF0.00027304455556965415
aF1.1690482983786625e-06
aF0
aF4.8125788134125427e-06
aF0
aF0
aF3.9029896117633142e-06
aF0.00059342000353326482
aF0
aF6.0104251913761312e-07
aF0
aF0
aF0
aF0
aF5.5460691487555367e-05
aF0
aF2.072416951570776e-07
aF0
aF0
aF2.8106406227545764e-05
aF0
aF0
aF0
aF0
aF0
aF0
aF8.7751054667811897e-05
aF0
aF0.0079976554866092071
aF0
aF0
aF0
aF1.0233392530326914e-05
aF0
aF0
aF0.00027670137192088696
aF0
aF0
aF2.4836308674201242e-06
aF1.3318333178841165e-51
aF5.8311861386894819e-06
aF0
aF0
aF0
aF1.4214265542978592e-05
aF0
aF0
aF3.0837701899737201e-05
aF3.0797807839980948e-05
aF0
aF1.223904330270397e-05
aF1.3318333178841165e-51
aF0
aF0
aF0.00033495500099263518
aF0.0017833374620983807
aF0
aF9.1844286803781228e-05
aF0
aF0
aF0
aF0
aF4.9418141616234405e-05
aF0
aF1.0075597674515731e-07
aF0
aF9.5548381061850186e-06
aF1.4167391297431738e-05
aF0
aF0
aF0
aF0.00010069716689112349
aF0
aF0
aF0
aF8.6433035652357369e-06
aF0
aF4.266479907698327e-05
aF0.00016401571942052654
aF0.0032975379111892964
aF9.2210655618129488e-06
aF7.0099260799103729e-05
aF1.6209443415708431e-05
aF6.6986616694661834e-05
aF0
aF0
aF0
aF1.5044583729644183e-06
aF5.2294595949084609e-06
aF2.8786966309934042e-05
aF0
aF0
aF0
aF0.00038918342187799611
aF0
aF0
aF2.1376831628377291e-06
aF1.3060498528070505e-05
aF3.020155071214137e-05
aF4.641619415693998e-05
aF6.4692036901077514e-06
aF0.00010184134468710033
aF1.2040896638439664e-05
aF0.00034782373549487446
aF0
aF0
aF2.0406339238334841e-07
aF0
aF0
aF3.7387344176428398e-05
aF0
aF3.8282675460756799e-06
aF0
aF2.9706082178012974e-06
aF5.4071409155402467e-06
aF0
aF4.727551941983328e-05
aF4.1158386647113909e-06
aF0.00013979462077461441
aF0
aF0.00074483435617568399
aF0
aF3.5792246827370174e-05
aF0
aF6.7979107731158146e-07
aF7.3262510181060624e-05
aF0
aF0.0046326392551975818
aF0
aF0
aF0
aF4.9864383035299742e-05
aF1.7862686988091514e-06
aF0
aF2.4670946020302169e-07
aF0
aF0
aF1.0882517102168595e-51
aF0
aF0
aF0.00014962524914048902
aF0
aF1.899400622244486e-05
aF0.00036570747455063718
aF4.5094921977395077e-05
aF0.0049220281565830982
aF4.3365338616741725e-05
aF0
aF0
aF0.00017740388319783967
aF0.00033661730852152559
aF0.0041750686935490356
aF9.7684449375232834e-05
aF0
aF1.5620674068820055e-05
aF0.0036611534070875814
aF6.7426583432541607e-06
aF0
aF8.3034011617386799e-06
aF1.9608561626630008e-05
aF0
aF4.4111005639009394e-06
aF0.00020772623382935734
aF0
aF0.0001103531829212352
aF3.9677966311856032e-05
aF0.0021115223538031593
aF3.067228653255601e-05
aF4.8435043313053596e-05
aF0
aF0
aF2.3395073135789185e-05
aF3.1094842569560953e-05
aF0
aF0.00030132069126976874
aF0
aF0.0010144636545206937
aF0
aF0
aF0
aF0
aF0
aF0
aF0
aF1.1291902281083475e-05
aF0
aF0
aF0
aF0.00012392058247645809
aF9.2930635793373102e-05
aF2.3534066769339713e-05
aF6.8109458101582675e-06
aF2.5595163767799074e-05
aF0
aF0
aF4.0356973191426957e-06
aF0
aF1.9625016897194851e-05
aF4.8593850481891132e-06
aF3.1210048880701835e-05
aF0
aF1.7486402012693233e-06
aF0
aF0
aF9.0490444109932605e-06
aF1.2485202575259407e-08
aF0
aF7.0136433830917434e-06
aF0
aF0
aF3.4235731463736532e-05
aF4.3139845004667903e-05
aF4.0760291285462255e-06
aF0.00063825389066175862
aF0
aF0.0011994899136235449
aF0
aF3.5815034782479978e-05
aF7.2579679494258715e-06
aF0
aF0
aF6.8799029199017448e-05
aF0
aF0
aF1.6149099841280626e-05
aF0
aF9.2859188601146636e-05
aF0
aF0.00016957765111460182
aF0
aF3.9977138731732266e-05
aF4.8777959374546423e-05
aF0
aF0
aF0.00022538621795848679
aF3.3062649080154204e-05
aF0
aF0
aF0
aF1.2220375362611255e-05
aF4.8240954980748769e-05
aF7.8006360383564975e-05
aF0
aF0
aF4.7477442082306959e-06
aF0.00012487572329025146
aF0
aF3.3759698384296885e-07
aF1.2118348767333981e-05
aF0.00022210822242764016
aF0
aF0
aF0.00013732802924232954
aF7.2580577028429188e-05
aF0
aF0
aF0
aF1.8298946809740019e-05
aF0.00012165875401280106
aF2.3028748961358323e-06
aF0
aF0
aF4.6837484887435902e-06
aF0
aF0
aF0
aF0.00074822652500214218
aF2.7760980884940026e-05
aF0
aF8.9493809724083999e-05
aF4.9939579226727411e-52
aF1.303249010631054e-05
aF0
aF0.0025481002879132026
aF1.1782258039872552e-05
aF3.4556340903222852e-05
aF4.7930900584994461e-05
aF0.00013824275881194422
aF0.00019906765217253007
aF0
aF6.6655086547618589e-06
aF1.7742571565953173e-06
aF0
aF4.8684285415216076e-05
aF0.00064789554551732099
aF4.8302850534759623e-06
aF0
aF0.00055219886309258433
aF0
aF0
aF0
aF0
aF0.00034760966210804881
aF0.00016112887503466034
aF0
aF0
aF0
aF2.1703261947189382e-05
aF1.6951515528844387e-05
aF2.2968556946697424e-05
aF0
aF1.6320787854636151e-05
aF9.7946618572073743e-46
aF1.4010667049516334e-06
aF8.6963160189072531e-06
aF1.2013005960977409e-05
aF0
aF0.00013050654554469935
aF0
aF8.4798644244525718e-07
aF2.2937756016871448e-05
aF0.00011068669428085291
aF1.0045965384677e-07
aF0
aF8.5625548719800359e-05
aF1.7511345477321652e-05
aF6.3479449714388619e-05
aF0
aF0
aF1.2042049173367118e-51
aF0
aF5.2191277419060769e-05
aF0
aF1.4456732190497262e-05
aF0
aF1.9444172519046939e-05
aF0.00018418543657021516
aF0
aF0
aF0
aF0.00010438033873119183
aF2.1338732412964581e-05
aF0.00021496116791974452
aF0
aF2.3217444500024246e-05
aF0
aF0.00019932687374446791
aF2.5042872272452756e-05
aF0
aF0
aF3.0638145910999802e-05
aF0
aF5.8885209289379519e-06
aF1.2531749884426152e-06
aF0
aF0
aF0
aF0
aF3.6674522289066679e-05
aF0
aF1.2702504059207226e-51
aF0.00022421521376945246
aF0.0015987595860045812
aF2.9908929204236738e-06
aF0
aF0
aF0
aF0
aF2.5843458632172843e-06
aF4.153995067913296e-05
aF0
aF8.1437225407469497e-06
aF1.1602808194706583e-05
aF0
aF3.5912805317047929e-05
aF0
aF1.4066974066758094e-05
aF5.6117220601884233e-06
aF0
aF0.00027054122351227277
aF0
aF0
aF4.3574339869132508e-06
aF1.6160868959873972e-06
aF2.7298591192745233e-06
aF0.00037197042809598846
aF0
aF0.00010677077085778626
aF5.3857454545254314e-06
aF0.00015387378651520391
aF3.6211527930144841e-05
aF0.00010354563636666845
aF4.5912776126908486e-05
aF2.2181961372344739e-05
aF0.001837693112802275
aF1.938410403091135e-05
aF0
aF0
aF0
aF1.8823221210293778e-05
aF0
aF0
aF5.1193312485961846e-05
aF9.3069644257815709e-06
aF0
aF0.022723853473154674
aF8.1137329701241063e-06
aF5.4521286726379885e-05
aF0.00025084466139444004
aF0
aF3.0021202364277163e-05
aF1.1731196023859813e-05
aF0
aF0
aF1.0186267910201138e-05
aF0
aF0
aF7.3413402236879985e-06
aF0
aF0.00014286334254634574
aF1.5982174194584166e-05
aF3.3495492487071154e-05
aF9.4330662301644879e-06
aF0
aF0
aF3.8507793196909287e-05
aF0
aF1.9529849413148619e-05
aF0
aF0
aF1.9275731935486972e-05
aF1.7504406103537897e-05
aF0
aF0
aF3.5050589383349191e-05
aF3.4759302317416534e-05
aF1.0549188529497784e-05
aF0
aF0
aF3.4511191490465637e-06
aF0
aF5.9199281274327594e-05
aF0
aF3.5526633895495575e-05
aF2.1285275863127802e-05
aF2.9352571031593094e-05
aF0
aF0
aF3.4558729114196614e-05
aF0
aF2.072416951570776e-07
aF1.9314949893598314e-05
aF1.896677541525193e-05
aF1.5361162290555527e-05
aF0
aF7.9820076488268242e-06
aF3.6844456198323009e-05
aF3.8396862169203614e-05
aF0
aF0
aF1.2042049173367118e-51
aF0
aF0
aF1.1373269687847633e-05
aF3.8662736841936841e-05
aF2.6109665515849931e-06
aF0
aF0
aF0
aF0
aF0
aF0
aF8.7657991763068725e-08
aF0
aF0
aF0
aF0
aF1.1710259960982721e-05
aF0
aF0
aF0
aF3.8819211980120301e-05
aF0.0019287084495470852
aF0.00036908711037197099
aF3.7617251884644657e-06
aF0
aF1.081508671994079e-51
aF0
aF8.0054924021362575e-05
aF7.8613102042698111e-06
aF0.00019626625106108407
aF0
aF2.6341730215722499e-06
aF3.0671564899860205e-05
aF0.00023960356836160674
aF0.0017066088234759795
aF0
aF0
aF9.3162822305925904e-06
aF0
aF0
aF6.1899655695751247e-05
aF9.241372110871343e-05
aF3.8417397439463035e-05
aF3.3907152648151713e-05
aF0
aF0
aF0
aF3.2478907618998724e-07
aF3.3439445322492745e-05
aF0.00013248399972528099
aF6.3367088685563306e-05
aF0
aF0
aF0
aF0
aF0
aF0.00028325945374295728
aF0
aF0
aF2.0501959237894427e-05
aF0.022740614072376101
aF3.1148503694244321e-05
aF9.1090486592573574e-06
aF0
aF0
aF0.00010634778989556811
aF0
aF0.00050357592692946301
aF0
aF3.1605232502613668e-06
aF0.00066123930580676976
aF0
aF2.219526126794116e-05
aF2.3415850593810835e-05
aF1.3764682375498697e-05
aF0
aF3.05558744260717e-05
aF0.0012186219380342647
aF0
aF0
aF1.3311609800926502e-51
aF0.0080196523007734274
aF9.7096662571690404e-05
aF0.00011869676401819329
aF0.00078001437924085366
aF0
aF0.00017789892046714341
aF1.1274722686852774e-06
aF0.00014418541465058935
aF6.977575611971449e-06
aF9.9085227439165728e-52
aF0
aF0
aF4.9652350815427203e-05
aF4.5891133005021654e-05
aF8.742119078365646e-06
aF7.8272542530899192e-05
aF2.4675046598227017e-05
aF0
aF9.9644577678678164e-06
aF9.8761987324473855e-06
aF0
aF0
aF9.4676992583941461e-06
aF0.00022285581058419191
aF0
aF0
aF0
aF0
aF3.6013865744859024e-05
aF1.218045419854848e-06
aF0
aF0
aF0
aF1.6570366215430874e-05
aF1.1195270217962701e-05
aF2.0698019920503299e-06
aF0.00040783843765485365
aF0
aF0
aF0
aF0
aF2.971174900487565e-05
aF0.00011757445977787924
aF0
aF0
aF0
aF0
aF0
aF7.535370571504701e-05
aF1.6879521496645609e-05
aF0
aF1.1834461559877125e-05
aF2.0070037950117315e-05
aF0
aF3.9722684081355842e-05
aF0.00010947809237838619
aF1.3143110503378032e-05
aF0
aF0.00016037250563725834
aF6.4973602332240384e-06
aF3.8451134241242574e-05
aF0
aF0
aF9.1108079638868734e-06
aF0.0023937338892804035
aF0
aF1.3138562094997279e-06
aF0.0013674714399109541
aF0
aF8.7916041275202186e-05
aF0
aF0.00036684167139030925
aF2.996190897744954e-05
aF0
aF0.00017299462427381978
aF0
aF0.0013002836986269781
aF9.8949327090496953e-07
aF0
aF0
aF0
aF1.0705162071831824e-07
aF0
aF9.3897025005764236e-05
aF7.023644777244149e-05
aF7.1039399850141152e-05
aF8.8738799777182215e-52
aF0
aF5.2328741406588288e-05
aF0
aF0.0021317793121181398
aF0
aF3.1487751570664401e-08
aF0
aF0
aF5.8483082512780106e-06
aF0
aF0.00021589379137054737
aF0
aF0.00021923974240945144
aF0
aF0
aF0
aF0
aF0.00014797276033470054
aF1.8001933097589476e-05
aF0
aF1.1821332628589199e-05
aF2.3743586070474359e-06
aF0
aF0
aF4.088973298194554e-05
aF0
aF0
aF6.1451887431857683e-06
aF0
aF0
aF1.7442047371410614e-05
aF0
aF7.0419762926913503e-05
aF7.3740390436247015e-06
aF5.5414844289303971e-05
aF2.0386747537448188e-06
aF5.8647892731207527e-06
aF0
aF0
aF0
aF9.7725318853455771e-06
aF1.9910643330429531e-05
aF5.0859456463439768e-05
aF2.0227404366838738e-05
aF8.3755249647219184e-05
aF0
aF0
aF0.0054531661068093441
aF0
aF1.8143793776939461e-05
aF0
aF0.032000736624561793
aF0
aF9.2990206022901819e-06
aF0.00041874341521230981
aF3.5458616072671602e-05
aF0
aF1.9294992406136251e-06
aF0
aF9.9046404582118472e-06
aF0.0001066209481105639
aF1.5131604176537846e-06
aF2.3329647251782346e-05
aF0
aF0.0028253222564170745
aF0.00010421844846612622
aF0
aF0.00011584828331163475
aF4.0138453935714295e-05
aF6.2934967761492231e-05
aF0
aF6.6385592915231366e-05
aF0
aF7.6797230377419835e-05
aF0
aF0.00014657036464987857
aF0
aF0
aF0
aF0
aF0
aF1.1230002819100375e-05
aF0
aF2.0259000124908236e-05
aF2.6211735719024078e-09
aF2.8596575416701319e-05
aF0
aF0
aF0
aF0.0001276972750478259
aF0
aF0
aF0
aF0
aF0.001083557063952714
aF0
aF0
aF0
aF0
aF0
aF0
aF7.9296539639128055e-06
aF6.470588488431747e-05
aF0
aF0
aF6.2133180688262732e-06
aF0
aF0
aF7.7502645131741552e-52
aF2.777867391403791e-05
aF1.2042049173367118e-51
aF9.0380659180952287e-06
aF0
aF0
aF0
aF1.7202412614365837e-09
aF4.4130910681369832e-05
aF1.3402770580044326e-05
aF2.5593821778438215e-06
aF2.771273016159753e-05
aF1.3670037530095481e-07
aF2.138223311160227e-05
aF0
aF0
aF0.00035913612336576755
aF1.4274474965220292e-05
aF0
aF3.503094971058335e-05
aF0
aF3.0363766806673416e-06
aF0
aF0
aF1.4456732190497262e-05
aF0
aF0.00071372473743220709
aF7.2367861353406956e-05
aF9.5988452647505341e-06
aF0.00015279990042852987
aF0
aF0
aF0
aF4.6603297462998727e-06
aF0
aF1.0247541968742564e-06
aF0
aF0.00028112041916614346
aF4.71708545197549e-05
aF0
aF0
aF0
aF0
aF0
aF0
aF0
aF1.3318333178841165e-51
aF0
aF0
aF8.7390664802617004e-06
aF8.7638028174481049e-05
aF0
aF0.00023533885000909477
aF0
aF3.3020657199907833e-06
aF0
aF0
aF4.7142527521339054e-05
aF0
aF0
aF0
aF0
aF1.541465967880035e-05
aF0
aF1.3896109206752352e-05
aF0
aF3.6382406366285495e-05
aF5.2129151968683608e-07
aF1.2919451513332652e-05
aF0.00015198817620020155
aF6.0162531245419885e-05
aF6.743036248590475e-06
aF0
aF0
aF0.0024852096038167552
aF0.00011680023308600272
aF0
aF6.2764220342852568e-06
aF0
aF0
aF1.9092189312504976e-05
aF9.184368389961684e-06
aF0
aF1.2804140399841821e-05
aF0
aF1.8123110148111544e-05
aF5.3816653015509486e-05
aF7.2838429790577268e-06
aF1.524612859440909e-05
aF0.00011761592083553282
aF7.0296221519551855e-06
aF4.3520622699872491e-07
aF0
aF0
aF0
aF7.2745240796918863e-06
aF2.6854501948897487e-06
aF1.1635174232058016e-05
aF2.1838275699564527e-05
aF0
aF5.176348666280689e-06
aF3.7490686918691052e-06
aF0
aF1.258503854630408e-05
aF0
aF0
aF4.6382620536142758e-05
aF0
aF6.8992709302758258e-05
aF0
aF0.0002890877657194883
aF1.3318333178841165e-51
aF6.0097744550599503e-05
aF0
aF7.6125856780747507e-08
aF6.2945376593973807e-05
aF5.6770234200453878e-05
aF0.00013709014218077408
aF2.1045423197249009e-05
aF2.8352472572181222e-05
aF0
aF0.00020849689244844857
aF0
aF0
aF0.00011032569129990374
aF0.0001898011010029171
aF0
aF0
aF0
aF2.419828001011708e-05
aF1.1912168845658324e-06
aF3.8269787316244581e-06
aF0
aF0
aF2.9532071319946196e-05
aF0
aF4.1423893953326511e-05
aF0
aF1.8706315390708613e-05
aF0.0016167724986414463
aF2.2579658396508308e-05
aF0.00021642010932693264
aF1.4774457091126281e-10
aF0
aF0
aF2.7428206685947429e-05
aF7.1600949325776049e-05
aF0
aF0
aF0
aF0
aF0.0096739005015521722
aF0
aF1.3749843300832948e-05
aF0
aF0.00016967543420660127
aF0
aF0
aF0
aF5.7974855203599903e-05
aF0
aF0.00017338152782930347
aF2.2437584812505092e-05
aF7.4677654829610942e-06
aF0
aF0
aF0
aF0
aF0
aF0.00061020342367151586
aF0
aF0.001451627461012282
aF0
aF6.8738420289905761e-05
aF0
aF0
aF0
aF7.3199582744777895e-06
aF3.9313771981877655e-05
aF0
aF0
aF2.0626145465675697e-05
aF3.1605232502613668e-06
aF9.8715960504068387e-06
aF3.9366028722397049e-05
aF0
aF3.1958863653511504e-06
aF0
aF1.0755932948823498e-05
aF8.5057840604900136e-05
aF0.00015638132729311392
aF3.0735357724094833e-06
aF3.0130804168110619e-05
aF0.00043934834765237363
aF0
aF0
aF1.0231025736644885e-05
aF7.8172175213056733e-05
aF0
aF0.00026341824079812636
aF0
aF0
aF0
aF3.5731733485091343e-05
aF4.2282389127408592e-05
aF0
aF0
aF0
aF4.9792078617634016e-05
aF0.00027031143650474475
aF0.00010177468987459147
aF0
aF0
aF1.6778505442215186e-05
aF0
aF9.0770108985341195e-06
aF5.2277043898568972e-05
aF1.3839113022085557e-05
aF0
aF0
aF0
aF0
aF0
aF0
aF0.0020529303414701591
aF0
aF1.2835771096949482e-07
aF0
aF0
aF0
aF5.0597679632241121e-05
aF2.6603628826869691e-05
aF1.3121890916647034e-07
aF0
aF0
aF0
aF0.00023374457379943237
aF1.1648112445484435e-05
aF0
aF0.00017016722648662669
aF0
aF1.0948261000191717e-05
aF0
aF7.9830631470859733e-05
aF0
aF2.0160049886210685e-08
aF1.2179975682970989e-05
aF2.2724801194864062e-05
aF2.6727342425844133e-05
aF2.1523663768724425e-07
aF1.0882517102168595e-51
aF0
aF0
aF0.00084106181962338093
aF8.6055177243406694e-06
aF2.0073447155265325e-05
aF3.5144999547518106e-05
aF3.3918058685488091e-06
aF2.1130503444094981e-06
aF5.6337406521441477e-06
aF0
aF0
aF0
aF2.7413044444690719e-05
aF0
aF3.5686349321090967e-06
aF0
aF0
aF5.2129151968683608e-07
aF2.4388954427072701e-05
aF1.7398420103706732e-07
aF0.00010139245984151073
aF0.00074551670143301768
aF2.8452530350167714e-05
aF0
aF2.3420519921965442e-05
aF2.9890573141191075e-06
aF0
aF0
aF0
aF0
aF2.9348631109277035e-05
aF0.00015242910177292384
aF0
aF8.2526770650195625e-05
aF0
aF2.4507001021329535e-06
aF0
aF1.2052367823318942e-05
aF0
aF0
aF5.5966040822224283e-05
aF0
aF7.9166384989564012e-05
aF0
aF0
aF4.6656009089907145e-06
aF0
aF0
aF0
aF1.7482373864722061e-05
aF9.8094423832388723e-06
aF1.206034874213874e-05
aF0
aF0
aF0
aF1.0799176533446232e-05
aF0
aF4.3639509872570048e-05
aF0.00043270883793403809
aF0
aF0
aF9.2026602624142336e-05
aF1.8082161595961494e-06
aF0
aF0
aF2.2463835596105802e-05
aF0
aF0
aF0
aF3.0631026865287058e-06
aF0
aF3.8110443274901098e-05
aF0
aF7.8024400026728062e-05
aF8.7148036500953627e-05
aF1.0646318103844402e-05
aF0
aF3.6004975993122633e-06
aF0
aF0
aF2.7298591192745233e-06
aF0
aF6.4062628454905911e-06
aF0
aF0
aF0
aF1.9255157301457973e-05
aF1.2441299022418117e-05
aF1.5699374051928256e-05
aF6.9923601251905618e-05
aF0.0005385444293402391
aF4.6603297462998727e-06
aF0
aF0.0008727162415440088
aF0
aF0
aF0
aF0
aF1.9599588036071601e-05
aF1.6267202507985812e-05
aF1.3182307157153257e-05
aF5.308670329963987e-06
aF1.0331245990172184e-05
aF0
aF1.3084023261208146e-05
aF0
aF0
aF0
aF0
aF0
aF6.8539647298587359e-05
aF7.3779855811024626e-05
aF0
aF0.00020249938464110618
aF0.00019836159670767061
aF0
aF0
aF0.00025234079223713043
aF0
aF1.7012851029728065e-05
aF0.00024310247707161215
aF0
aF0.00032451662162062814
aF0
aF0.00015836655247636255
aF1.8150512523453584e-06
aF0
aF0
aF0
aF0
aF0
aF0.0042387763366009126
aF1.9145177276950637e-05
aF0.00024246768494293192
aF3.1225808862141573e-05
aF4.5063980458596759e-53
aF5.6264611242841256e-06
aF4.8854850523153734e-05
aF1.3490701873975372e-05
aF0
aF0
aF0.00042262923831498997
aF0
aF0.00047827410645581389
aF0
aF2.3526442125667773e-06
aF6.2690948903310105e-05
aF1.9560827620319935e-05
aF0
aF0
aF0.00013283177363287752
aF3.3894438501942494e-06
aF0.00011159106776815679
aF0.00024140820652026495
aF0.000247689241083652
aF0
aF0
aF0.00040211914321676033
aF2.0788889247326807e-05
aF0
aF3.7832152111119611e-06
aF8.8712857829765866e-07
aF0.00019000985836868851
aF0
aF9.1335792607107652e-05
aF6.0926495271204927e-05
aF2.3158438848415223e-05
aF0
aF0
aF0
aF0
aF6.4732577215542483e-05
aF3.435500558939229e-05
aF5.5502281903957729e-05
aF6.7525265200059234e-05
aF5.9671844053877017e-06
aF3.5555506824916495e-05
aF0
aF1.9209043428899008e-06
aF0
aF6.2106242462741693e-07
aF0
aF5.2419535792385829e-07
aF2.6680937648249531e-06
aF3.8546009147225454e-06
aF0.00019421003198583642
aF3.6586931786085557e-05
aF8.3322265154795343e-06
aF0
aF1.4320610059032124e-52
aF3.1444862356782092e-05
aF0
aF0
aF0
aF0
aF0
aF0.0020234197581896849
aF3.0995905782808476e-05
aF0
aF1.3511500941170386e-05
aF9.4700716809718078e-07
aF1.9011571216258381e-05
aF0
aF3.1605232502613668e-06
aF0
aF1.2211007845951406e-05
aF5.3861877607444329e-05
aF1.5186108948546277e-06
aF0
aF0
aF0
aF2.252366756323926e-05
aF0
aF0.00014439860145991004
aF3.8343456396015234e-05
aF4.2324410951886815e-05
aF0.00048637428248955115
aF0
aF4.7060166909398629e-05
aF0
aF2.8770717846025539e-05
aF0
aF6.2818074567556794e-05
aF0.00038903219460951469
aF3.624134630532292e-05
aF0.00033979282339212033
aF2.7485727039827524e-05
aF0
aF5.3844950872005354e-06
aF0
aF0.00070463568899154991
aF0.00044020561096193333
aF0
aF0
aF0
aF0
aF2.1697509889261864e-05
aF5.3809850596476201e-06
aF2.3453844539677172e-05
aF0
aF0
aF1.1017902606692741e-05
aF0
aF0
aF0.00017946105943346871
aF0
aF3.6131745283349253e-05
aF0
aF0
aF0
aF0.00015181077596352117
aF0
aF1.9793816764255431e-06
aF0
aF0
aF5.545608111311728e-05
aF1.2268515721283333e-05
aF0
aF1.8256005972053983e-05
aF4.8755601772036725e-05
aF7.0825250670999557e-06
aF0
aF0
aF3.3472387422854656e-05
aF3.5578454679154133e-05
aF0
aF1.0678558969780307e-06
aF0
aF0
aF0
aF0
aF0
aF1.3722640715529589e-05
aF0
aF0
aF0
aF2.1663007402564034e-08
aF0
aF1.9892368383750522e-05
aF0
aF8.4264461985151582e-06
aF0
aF1.3297968190876006e-51
aF0
aF0.0016851600410555739
aF0.00018763830601293204
aF0.00010572846392033576
aF0
aF0
aF1.4495502864169019e-08
aF0
aF0
aF0
aF5.4071409155402467e-06
aF5.3873457202851605e-05
aF0
aF9.122561879965781e-06
aF5.2552681402034794e-05
aF0.00027057680923936532
aF0.00070594822389632734
aF0
aF1.4032583175674518e-05
aF0
aF1.9200209621838096e-05
aF0
aF0
aF9.6965118642843618e-06
aF4.0850936764101555e-05
aF5.0394318903175859e-05
aF0
aF0
aF2.5624294326104159e-05
aF0
aF0
aF6.6817005043743656e-05
aF0
aF8.3888296690832256e-05
aF0.00053636165209008122
aF6.2601822298765745e-06
aF0
aF0
aF0
aF0
aF0
aF2.8204186865554622e-05
aF0
aF0.00056301932984394903
aF0
aF0
aF6.7161880510573134e-05
aF0.001521541853304679
aF2.3344729064761161e-05
aF4.409355112409978e-05
aF4.7839201528903016e-05
aF0
aF0.00029204614528616034
aF0
aF0
aF1.2080840559971988e-05
aF0.00080624360021376953
aF0.00050585838407705877
aF2.3217547378268964e-05
aF0.00030537341988287836
aF2.0603974654313213e-07
aF0
aF0
aF0.0001071624970279671
aF1.0882517102168595e-51
aF1.0030852179422669e-05
aF0
aF4.2120218741846761e-06
aF0
aF8.1674795437377862e-05
aF2.9312316603497594e-06
aF0
aF0
aF0
aF0
aF5.0935493158660487e-05
aF0.0002126863044069417
aF0
aF0
aF0
aF0
aF0
aF0
aF7.8933945499105721e-46
aF0
aF1.5156305228446835e-05
aF1.1438089313238342e-05
aF1.5804205271833436e-05
aF0
aF1.9176911182758884e-05
aF4.6967521819311034e-05
aF0
aF1.7622810130518793e-05
aF0
aF3.4719380189260331e-54
aF4.5787588453697093e-06
aF2.2793846437706411e-05
aF4.630385047150631e-05
aF2.7685763237835769e-06
aF6.7572266382814173e-05
aF1.2800877258025133e-05
aF3.5795928225370456e-06
aF8.2538951554477901e-05
aF0
aF0
aF0
aF7.5152483490784303e-05
aF0
aF0
aF0
aF1.2977784470175234e-05
aF0
aF7.7748201911442871e-07
aF1.793654181654406e-05
aF0
aF0.0021710700330436071
aF0
aF0
aF0
aF0
aF1.2309718522935246e-05
aF9.1596871163957536e-05
aF0
aF2.9258061745798184e-06
aF0.00011580765075365537
aF0.00042818501476654246
aF0
aF0
aF6.5381557694368389e-06
aF0
aF1.2878970486613951e-05
aF0
aF5.8169424373063374e-05
aF1.2321474164907075e-05
aF0.0017555388525824914
aF0
aF0
aF0
aF0.00025678888301902621
aF0
aF0.00021755510090718029
aF0
aF3.5755193702171476e-05
aF0.00025836945555415418
aF0
aF0
aF0
aF9.7485605788827202e-05
aF0
aF1.1519230101528937e-51
aF1.8283930871155668e-05
aF0
aF0
aF0
aF2.1525819088344922e-05
aF0
aF7.0829128978835583e-05
aF0
aF5.0594790227811388e-06
aF3.3876612186966741e-05
aF7.4905972076210787e-05
aF1.0882517102168595e-51
aF0
aF1.3766940492368612e-05
aF3.7890285235844649e-06
aF0
aF0.00012757067668334141
aF0
aF3.1575319891203724e-05
aF0
aF0
aF0.00023543722028570319
aF6.4721496525421845e-05
aF0
aF0
aF4.1158025633772631e-06
aF0.00011647308025668897
aF8.7393773458649079e-05
aF1.4593411669576556e-05
aF0.00053885960601802454
aF0
aF0
aF0
aF0
aF3.450792841424645e-06
aF6.6846682391820096e-05
aF3.0879289641216298e-05
aF0
aF0
aF0
aF0
aF0
aF1.3071201297735182e-05
aF5.1506587020398841e-05
aF0.00016261195712718247
aF0
aF0
aF1.9141448321960327e-05
aF0.0001082115395741509
aF0.00014959824355861967
aF0
aF0
aF0
aF0
aF8.8738799777182215e-52
aF0
aF4.6946145713667129e-52
aF0
aF0.00037654298590671131
aF9.8555795874911325e-05
aF0
aF0
aF2.8286731610407093e-06
aF3.222881035859997e-05
aF1.303133693256142e-05
aF0
aF1.4354595274540055e-06
aF4.3594942845971635e-05
aF0
aF0
aF0
aF0
aF0
aF0
aF1.9101569911905888e-05
aF0
aF6.3951537081296549e-05
aF6.1652318389184611e-06
aF0
aF4.7393247313664253e-06
aF0.00022324261102951346
aF0
aF3.2399694429904875e-05
aF8.1395982679920715e-05
aF0
aF0
aF0
aF0
aF0
aF0
aF0
aF4.3227463830962772e-05
aF0
aF3.3906613362823019e-05
aF0
aF5.2307668879052073e-05
aF0
aF3.62944639747665e-05
aF0
aF0
aF0
aF0.00038774562512457347
aF8.050931468873593e-06
aF2.8888535426202388e-06
aF0
aF0
aF0
aF0.002102825753635081
aF2.1669270781634357e-05
aF0
aF0
aF1.2716048960881038e-05
aF0
aF0
aF1.68908090562098e-05
aF5.0747202275213832e-05
aF1.178667303243797e-05
aF0
aF0.0098777610202430057
aF1.9209960228730058e-05
aF0
aF0
aF0.00091965991895786193
aF1.6332993960132969e-05
aF0
aF0
aF4.5006542714910991e-05
aF2.7963969816545823e-05
aF0
aF0
aF3.3703281721038898e-05
aF0.00041772529487834839
aF0
aF0
aF0
aF0
aF0.00014585202274445161
aF0
aF3.183286586715517e-06
aF3.58144387100339e-06
aF0
aF0
aF0
aF1.6930393802658247e-05
aF0.00023411613290273179
aF2.7638110257286398e-08
aF0
aF0.00018406088272895663
aF0
aF2.5567271271620013e-06
aF0
aF8.3184240857277978e-05
aF0
aF0
aF0
aF1.8228890445613087e-05
aF1.2655449799248158e-05
aF0
aF2.7965056454209082e-05
aF3.9653882638049991e-05
aF6.733126654606042e-05
aF1.0508398656618637e-05
aF0
aF5.8927667823796162e-05
aF4.3635414586866416e-05
aF0.00019355665297059532
aF4.8742374846643168e-05
aF0
aF0
aF2.6005218072760509e-05
aF0
aF0.0001308735652348066
aF0.0011266185287166436
aF0
aF0
aF0
aF1.8946747693983887e-05
aF0
aF0
aF0.00011667182363735223
aF0.00028210033831450946
aF0
aF1.9239609951319633e-05
aF0
aF0
aF4.9736178269265763e-05
aF5.9783154249480742e-05
aF9.309200965639624e-06
aF0.000310849783170744
aF3.4550681312074825e-05
aF0
aF6.1608227591167623e-06
aF0
aF1.135393717685067e-05
aF0.00039268565178129499
aF1.0118281675749503e-05
aF0
aF0
aF0.010574711427755894
aF1.4111769072641157e-05
aF0.00013131442645257933
aF0.00052787502413882291
aF0
aF0.00012640461598736788
aF1.6940650370666017e-05
aF0.00013322152255027794
aF3.5868087024004386e-05
aF0
aF0
aF0
aF0
aF0.00010662648694990563
aF4.3300414887722724e-05
aF8.8712857829765866e-07
aF0
aF0
aF0
aF5.4842763522528664e-05
aF1.9204112116552096e-06
aF2.9613190804846931e-06
aF0
aF0
aF3.1689677954380692e-05
aF0
aF0
aF0
aF0
aF0
aF0
aF0
aF4.8930251267329616e-06
aF0
aF0
aF8.3969051789208605e-05
aF0
aF0
aF3.468183481927385e-07
aF0
aF4.5610628444911974e-05
aF8.8116580407222837e-06
aF2.979331510782349e-06
aF0
aF3.0882390726061898e-05
aF1.0568082177417467e-05
aF0
aF6.7586490107899184e-05
aF0
aF0
aF0
aF7.4142641992287926e-05
aF0.00031156548068063806
aF1.8912888689547446e-05
aF0.0023579637110478051
aF0
aF2.7341513114097883e-06
aF0
aF1.2910206614438713e-05
aF2.1880673742506366e-05
aF0
aF5.8265132150687866e-05
aF1.9851882131737718e-06
aF2.2912747436979778e-05
aF0
aF2.3617777924356505e-06
aF1.2073251978938447e-06
aF0
aF0
aF1.941328546531972e-05
aF0
aF0.00093127811126545845
aF0
aF0
aF0.0043799285132284007
aF3.4389202198078886e-06
aF0
aF0
aF0.0001013166002264902
aF1.3318333178841165e-51
aF0
aF4.740194605106329e-05
aF7.9187866464367339e-06
aF0
aF0
aF8.6686859650241796e-05
aF0
aF0.00018991784081857522
aF2.8691676966167521e-05
aF0
aF0.00010173986053236082
aF0
aF0.013210052816449163
aF1.5757021460660536e-08
aF0
aF4.5063778644059201e-05
aF6.626666565852106e-06
aF3.9526333225195078e-06
aF0.00024651871621395456
aF0
aF3.882220099908193e-05
aF0.0001065375030384073
aF0
aF1.7110348467758017e-05
aF0.033106231453042707
aF0
aF3.5092908838473909e-06
aF2.4613090567601144e-05
aF9.3200247922628515e-05
aF1.7889375440088843e-05
aF0.0037528411700558065
aF1.3318333178841165e-51
aF2.12705911595805e-05
aF1.3474199793533168e-05
aF0
aF0.00031238646916769325
aF0.0011415618209010981
aF7.9552632743164501e-06
aF0
aF0.0001296777025154638
aF2.4924481120127734e-05
aF3.4391911427468901e-05
aF2.3138854059603469e-05
aF5.5969080900722452e-06
aF0.00031748983391886214
aF2.6854501948897487e-06
aF3.4366467767348696e-05
aF7.2604045490224771e-05
aF0
aF0
aF3.0275658185627989e-05
aF0
aF1.7215899622788709e-05
aF0
aF0.00016165418476696118
aF7.7698700261559622e-05
aF0
aF8.8659685522565914e-07
aF1.5900639179195195e-05
aF0
aF0
aF0
aF0.00035896438439303241
aF0
aF2.7477317396318715e-05
aF0.00056435600254180153
aF8.8680480948789405e-06
aF4.1716705446067073e-05
aF8.1871566214915194e-05
aF0.00081452263650668984
aF0.00020770960893592183
aF0
aF0
aF0.00076628329760131261
aF0
aF1.3679131655589566e-05
aF0
aF0
aF4.8611486941311999e-05
aF0
aF0.00035320939434537016
aF0.01426637647428133
aF0
aF0
aF0
aF0
aF3.1204283828461149e-05
aF0
aF0.0037168927604644994
aF0
aF3.8467796754379002e-05
aF0
aF2.2505684624548065e-05
aF1.8252112767881497e-05
aF0
aF0
aF0
aF0
aF0
aF9.5049498496293189e-07
aF4.1272042560617554e-05
aF9.0813631176284726e-05
aF5.306917388321895e-05
aF0
aF3.5240852433992935e-05
aF1.3318333178841165e-51
aF0
aF0
aF0
aF1.1246644213081894e-05
aF0
aF0
aF0
aF3.618988802200069e-06
aF4.284082994715967e-47
aF0
aF8.5865304176694402e-07
aF0.00017216948183827169
aF0
aF0
aF0
aF0.00012303865843962979
aF0.00098548423670578953
aF0
aF0
aF1.4841971426004232e-05
aF0
aF1.5507781631804026e-05
aF4.5875637256519752e-06
aF0
aF0.0028410271030914333
aF0.00010301570654487087
aF3.8922265228962575e-06
aF2.8108420869285443e-05
aF4.9091925844416569e-05
aF0.00031378797756877256
aF0.00039518066322257882
aF0
aF2.5863361418051974e-06
aF9.6527898144868515e-05
aF0
aF5.4705312356876792e-05
aF7.8122373672949349e-05
aF7.6666092102029346e-05
aF3.2486862937850761e-05
aF0
aF0
aF0
aF0
aF8.4089905197430047e-05
aF4.0948379934997568e-05
aF6.5354774765905008e-05
aF0
aF0.0024736131077816876
aF2.3856332329699615e-06
aF0
aF0
aF1.0867959557765251e-05
aF1.0882517102168657e-51
aF7.2676264971945081e-05
aF6.019374794408166e-05
aF0
aF2.7323303628095362e-05
aF2.3593755294521312e-05
aF4.9358054513137781e-06
aF3.3313363548797184e-05
aF0.0002665842872707662
aF0
aF0
aF0
aF0.00037213410936073952
aF7.8551303642527278e-52
aF0
aF9.2968465592159389e-06
aF0
aF2.5249193907339758e-05
aF0
aF0
aF5.0325578368728978e-06
aF0.00010162080897091206
aF0
aF5.0911659036643035e-05
aF4.4798409480855474e-05
aF4.8930251267329616e-06
aF1.0993321450184047e-05
aF0
aF0
aF1.9918193539111706e-06
aF4.6134764131830499e-05
aF2.1925395338041452e-05
aF0
aF8.2288264378619348e-05
aF0
aF1.8213981195018355e-05
aF0
aF0
aF0
aF0.00016749735045121645
aF1.3318333178841165e-51
aF0.00016918556543858121
aF0.00017376122874191504
aF0
aF0
aF0.00019532372584997039
aF1.1480353909350033e-05
aF0
aF3.9573766570601913e-05
aF3.4295532678355604e-05
aF9.3569156622583997e-06
aF7.5862566993713467e-07
aF2.0585362352521656e-05
aF1.0359815056472838e-52
aF0
aF3.1395751163707157e-05
aF0.016172386866364907
aF0
aF0
aF0.0160331157238832
aF0
aF9.9860691842276698e-06
aF0
aF0
aF1.9554735189469215e-05
aF0
aF0
aF0
aF9.9435054530280355e-05
aF1.0519046323650208e-07
aF0
aF0.00023083637381902456
aF3.6767989893594437e-05
aF2.4305807405507902e-05
aF6.1148770326131885e-06
aF0
aF0
aF7.443275592900984e-05
aF4.8880565081117051e-05
aF0.0001255196243852145
aF0
aF0.00020482488413415027
aF1.7613395619990542e-05
aF7.4665809592325055e-05
aF0
aF0
aF7.9709982856660349e-05
aF0
aF0.00041177308346407857
aF0.00011431731294498267
aF1.7971793945806147e-06
aF6.4260544135414892e-05
aF1.159235692187459e-05
aF0
aF0
aF0
aF2.7426872826142184e-05
aF0
aF0
aF1.4257735236423511e-05
aF0
aF0.0027866164728009902
aF4.3902674879217974e-05
aF2.7468202188786267e-05
aF0
aF1.6873903984550664e-06
aF2.0459807428024833e-05
aF0.00060091343507296616
aF0
aF0
aF0
aF0.00071700788318793563
aF0
aF0
aF0
aF2.3989401763701937e-06
aF7.6183298159309673e-05
aF0.0011209128457506364
aF0
aF0
aF5.9164897360639383e-06
aF2.4797119458381033e-05
aF0.00045042382429422688
aF0
aF2.3644766063969403e-05
aF6.44923745362111e-06
aF6.7297753380504489e-06
aF1.1170591393489357e-05
aF3.9699009990951894e-06
aF2.8774527682743448e-06
aF4.0624148013147375e-05
aF0
aF0
aF0
aF6.0642131040787867e-05
aF0
aF0
aF0
aF1.3039193429264795e-05
aF7.2389622447535545e-05
aF0
aF0
aF0
aF8.2975905153566274e-05
aF0.010051272449457872
aF0
aF0
aF0.00010785101428970066
aF5.6160467814148413e-05
aF0
aF3.7630372991395756e-05
aF0
aF0
aF3.9929921294186607e-05
aF0.00013262460710676321
aF0
aF4.2114945083639024e-05
aF8.0786765177788883e-05
aF1.8173026729609539e-06
aF0
aF0
aF0
aF0.00021844037434751395
aF0
aF5.0486267662472465e-06
aF0.0011428734224611374
aF0.00020430954232719895
aF6.6414527982143543e-06
aF3.107785474182372e-05
aF0
aF4.9357980252034195e-05
aF8.8829518577629758e-05
aF0
aF0
aF0.00037653707965973842
aF3.44581980976607e-06
aF5.2564879607561615e-06
aF0
aF0
aF0
aF0
aF2.4864689597062136e-05
aF0.00045806937618878208
aF0
aF0
aF0
aF0
aF0
aF0
aF0
aF6.1889985344783393e-06
aF8.1717486827488218e-07
aF0
aF0
aF1.9419580768309158e-05
aF0
aF0
aF0
aF0
aF2.8362022132773543e-05
aF2.7398274116130508e-05
aF2.4291792218734439e-05
aF1.0705015941375805e-05
aF0.00016415263729433372
aF0
aF0
aF0.00022023204781037822
aF2.2086674324498101e-05
aF0
aF4.6136275627220858e-08
aF0
aF2.3553552970905281e-05
aF0
aF5.387567786111344e-05
aF0
aF1.9449535023790681e-06
aF0.00044963304695584168
aF1.3787542871391912e-05
aF0.00012182757796748226
aF0.0004778392264925461
aF0
aF0.00036297691552503631
aF0
aF2.0614516919899218e-05
aF2.1359199411184824e-05
aF0
aF0
aF0
aF0.00020221255103532054
aF9.8715960504068387e-06
aF0.0010011639783391445
aF0
aF0
aF1.3032147841578591e-05
aF0.00027756447130316495
aF0
aF0
aF0.0011447896046291671
aF9.9039239097561071e-05
aF0
aF0
aF0.00012678112303689411
aF0.012427038495293523
aF6.2994376499193796e-06
aF4.4644815396150565e-05
aF1.2259816106471121e-05
aF0
aF0
aF0
aF0
aF0
aF9.3484259185874584e-06
aF0
aF4.3989153540338076e-06
aF0
aF5.0159380783934371e-05
aF1.9365168260726914e-06
aF0
aF0
aF0
aF0
aF1.0919436477098093e-05
aF0
aF0
aF4.3147197560953367e-05
aF0
aF0
aF0
aF1.0145945888240121e-05
aF2.9085340607883167e-07
aF4.1935213721220494e-05
aF1.1395959286241349e-05
aF0.00014235417473834546
aF0.00099092152811580962
aF4.3307752928422528e-05
aF0
aF0
aF7.3956884490161025e-05
aF9.164025517308291e-07
aF3.568154682222901e-05
aF0
aF2.6449725080405817e-06
aF0.00061912050119236248
aF1.2400427520325452e-51
aF0
aF0
aF1.826207604959237e-05
aF0.0015995457917305795
aF5.3912672264329972e-06
aF3.7521714301211816e-05
aF2.164080538267935e-05
aF1.6950209254452808e-05
aF0
aF1.5255865593020458e-05
aF0
aF0
aF3.4484019691265896e-06
aF0.00018553480205239233
aF0
aF0
aF0
aF0
aF0
aF0.00024998905247193505
aF1.2931525884441081e-05
aF0
aF4.4261474911484083e-05
aF0.00053316371674068462
aF0
aF1.3194553188028098e-05
aF0.00048450129938558525
aF0.0012918733648187109
aF0
aF4.433732607987263e-05
aF0
aF0.0011777476707662403
aF0
aF3.1898686622883359e-05
aF0
aF1.1245450935083863e-05
aF0
aF0
aF2.7877835838085404e-47
aF0
aF0
aF0
aF4.4926981093039176e-05
aF1.4271064601143869e-06
aF1.1373269687847633e-05
aF0
aF0
aF0
aF0
aF5.499313378210658e-06
aF0
aF0
aF0
aF1.4410646506032827e-05
aF0.0038949182104764503
aF0
aF1.5757021460660536e-08
aF0
aF0
aF0
aF0
aF0.00032048533746820872
aF1.3821511621811643e-05
aF8.0929863743423055e-05
aF2.5658593525929485e-05
aF5.168242781381968e-05
aF0
aF1.5757021460660536e-08
aF0
aF0
aF2.8143205903910565e-05
aF2.2819409203441557e-06
aF1.2443494767607053e-05
aF0
aF0
aF0
aF0.00024991985755177029
aF0.00059222444654348603
aF0.0004402834729001712
aF2.935679988158664e-05
aF0
aF0
aF0
aF0.0022039113505814135
aF0
aF3.2343276524043062e-05
aF2.1167939403661995e-05
aF0
aF0
aF3.1556848253432001e-05
aF0.00036778530735212084
aF0
aF0
aF0
aF4.4399201165540341e-05
aF9.7480289960112612e-52
aF0
aF0
aF0
aF0
aF9.829569693924825e-52
aF4.3246557882583871e-05
aF0.0039503132707483166
aF0
aF0
aF5.5256003227307907e-05
aF0
aF0
aF0.0012942486211728751
aF0
aF8.5102194744071437e-06
aF1.5473244345957854e-07
aF0
aF4.6164545680290295e-05
aF1.5243445902858856e-05
aF0
aF7.2002433249082516e-06
aF0
aF0
aF0
aF0
aF0.0004479371805076058
aF0.00013299435223568126
aF1.038494512717123e-05
aF1.3318333178841165e-51
aF0
aF0
aF2.3735359155450876e-05
aF0
aF0
aF0
aF0
aF3.9066875145083356e-05
aF0
aF0
aF0.00048674340602486129
aF6.9565701517611798e-05
aF5.4380535713728111e-07
aF0
aF5.4104331154313795e-08
aF0
aF0
aF0.00016238632788349299
aF0.00089811201871209411
aF0.00012210670571120573
aF0
aF1.3269568824502577e-05
aF9.145813866650417e-07
aF0
aF0
aF0.00061792391328864007
aF0
aF3.0529402897460734e-05
aF0
aF4.7346576516229906e-06
aF9.8173292871227443e-05
aF0
aF0.00018613838501555121
aF0
aF3.4333296242076298e-05
aF0
aF0.00016146549055851892
aF0
aF0
aF5.328462236289369e-06
aF0
aF1.3343971895827676e-05
aF1.2936366439642064e-06
aF5.6949270236139242e-06
aF2.5445859171082718e-06
aF0
aF0
aF2.565754410753378e-05
aF0
aF0
aF0
aF5.2995198751514456e-05
aF6.1996265738260018e-05
aF2.3875504980298906e-52
aF0
aF1.1291006290386288e-05
aF0
aF5.2785170497723311e-05
aF0
aF0.0001171396521397113
aF0
aF0
aF0
aF5.7386609819458338e-52
aF2.5840961660906666e-06
aF0
aF2.7398451029295483e-05
aF0.0020914867166461092
aF8.6588334553476947e-07
aF5.9886055678859258e-05
aF0
aF0
aF0.00056577286039186168
aF0
aF0
aF5.4805959229039035e-05
aF1.4598800390147709e-05
aF3.0061171353848075e-05
aF4.0125377975610662e-05
aF0
aF1.6752111103065009e-05
aF1.8383539942182931e-05
aF0
aF0
aF0
aF0
aF8.7782061605844769e-06
aF0
aF3.0190884347668097e-05
aF0
aF0
aF0
aF0
aF0
aF0
aF0.00023536851469895399
aF0
aF6.5552802752161436e-06
aF0.00019444839924062399
aF0
aF0
aF0
aF9.8094319148400023e-52
aF2.027508446031924e-05
aF5.2274840087470533e-06
aF4.2570386444069757e-06
aF0
aF1.3736556802747811e-05
aF0
aF1.9492327209804046e-06
aF0
aF4.0335718282530682e-05
aF0.00029074906337311901
aF0
aF0
aF7.5358245219946053e-05
aF0
aF0.00013534277135767811
aF0.0031569514046524243
aF0
aF1.40467984257353e-05
aF3.7792432188880712e-05
aF3.2894682616093696e-05
aF0.0026183335865177164
aF1.5887495211585221e-05
aF8.8382091599585916e-05
aF7.711826566869378e-05
aF0
aF3.584821233587495e-05
aF0
aF0.00015302010696129287
aF0
aF7.3216112566952799e-06
aF0
aF0
aF7.601525687160413e-05
aF0
aF3.1960962793179016e-05
aF0
aF3.915955445951702e-06
aF1.0032320686775514e-06
aF0.00037302169960807603
aF3.0234308708101862e-07
aF0
aF8.8550147504778666e-06
aF6.707227923591267e-05
aF0
aF1.8123919860422464e-05
aF1.6322427229227141e-07
aF0
aF1.4777850291318784e-06
aF0.00016671940675685702
aF2.7709120913740834e-05
aF0
aF0
aF0
aF0.00095418773090506
aF0
aF0.0001198578413239699
aF0
aF0
aF5.0893514022897535e-06
aF0.0003330656615622934
aF0
aF4.7814986069353835e-07
aF3.9979678452102715e-06
aF3.5010877951257659e-05
aF8.2016647827013139e-05
aF0
aF7.1001836276470165e-06
aF0
aF0
aF0
aF2.517007709260816e-05
aF0
aF0
aF0
aF2.0847097226036486e-05
aF2.7192122625310418e-05
aF3.6992007620990875e-05
aF1.0882517102168657e-51
aF0
aF0
aF0
aF0
aF0
aF0
aF0
aF4.0998836611213741e-06
aF0
aF0
aF0.00045919623840410449
aF2.5032571863664402e-06
aF5.7369584967179411e-05
aF8.5865304176694402e-07
aF0
aF0
aF0
aF0
aF0.0033394328090778228
aF5.0191129928278342e-05
aF8.2075079767148152e-08
aF1.5161665800882186e-05
aF7.0966423444801844e-05
aF0
aF1.1165979179908711e-05
aF0
aF5.8660041339301012e-05
aF0
aF0
aF4.0664810461359369e-06
aF2.8630655044329731e-06
aF6.0067561005044532e-07
aF0
aF0
aF0
aF0.0034254365099854246
aF0
aF3.1928159686576099e-05
aF0
aF7.1912703506251123e-05
aF0
aF0
aF0.0011670574533002686
aF0
aF1.4734128774615876e-05
aF2.2551532058555357e-05
aF0
aF3.62474271978222e-06
aF0.00021457781372812856
aF0
aF0
aF1.3318333178841165e-51
aF0
aF0.00011830190276002486
aF0.0006181252338675272
aF0
aF0
aF0
aF0.00051741756345926888
aF0
aF1.8320657147185945e-05
aF0
aF5.7797617410306023e-05
aF0
aF6.1344578353717512e-05
aF4.2075232866699776e-06
aF4.1909591773090084e-06
aF0.00016660514644946465
aF3.489836345289677e-05
aF0
aF6.6987433240080856e-05
aF3.0707245501434171e-06
aF0
aF0.00014715385744373886
aF0.00011187782814562327
aF2.6353715408763546e-06
aF0
aF0
aF8.320514258765983e-06
aF4.5803809301095447e-05
aF4.4913589705791789e-09
aF0
aF0
aF0.00013514775165362268
aF1.9232886130248302e-05
aF1.4272351261979564e-05
aF0
aF0
aF4.7473051478325059e-05
aF1.104141122833441e-51
aF0.00010506352061071951
aF5.6791974296065984e-05
aF2.1703261947189382e-05
aF0
aF5.7444714204754717e-06
aF0
aF0
aF0
aF0
aF1.4669369998668901e-05
aF0.00039749545846921153
aF2.9594473841996698e-05
aF0.00018400874634854169
aF0.0001770990334316348
aF0
aF0
aF4.1433776091032173e-05
aF2.7406964854088771e-05
aF8.9410394339786776e-05
aF1.7027384569380675e-05
aF0
aF5.6825522729015027e-05
aF0
aF0
aF4.3812593724270032e-05
aF3.2720228687157688e-06
aF7.711612270288721e-05
aF0
aF0
aF0
aF0
aF0
aF0
aF0
aF0
aF0.00023135424533533134
aF0
aF0
aF9.784764440596472e-05
aF5.2776084947520608e-06
aF0
aF0
aF1.5135605353542336e-05
aF3.6863539097682167e-05
aF0
aF0.004449492900464945
aF3.2033649527527998e-05
aF1.010706444510927e-05
aF0.00091890080989876551
aF2.8505561163918721e-05
aF0
aF1.98187568218922e-05
aF0.00037797800590597791
aF0
aF0
aF0
aF2.6403319662549163e-06
aF1.9508870382215384e-05
aF9.6070341266893318e-05
aF6.5083459457568238e-52
aF1.7821593418473839e-05
aF0
aF1.6758396616270582e-05
aF0
aF0
aF3.1275755305746443e-07
aF6.8021465366566698e-06
aF0
aF0
aF0
aF5.5201640975904829e-05
aF2.5830464590402196e-05
aF0
aF0.00025937492700790874
aF0
aF3.0252058981681393e-06
aF0
aF6.1232231427674775e-06
aF0
aF0.00047729423338454976
aF0
aF0
aF3.7344138480437519e-05
aF0
aF0
aF0
aF2.9132770687805378e-06
aF0
aF0.00012024124428821549
aF0
aF0
aF0.00021459423098935549
aF0.0012138340438697267
aF0
aF0
aF3.594598024214575e-13
aF1.3318333178841165e-51
aF0.0013984578235033032
aF0
aF3.44581980976607e-06
aF0
aF0
aF0.0014485382014753614
aF0.00035816910432603211
aF0
aF4.3847962845966614e-05
aF1.3170422098122229e-51
aF0
aF7.6798018686464111e-05
aF0
aF0.016304387379244892
aF2.8717644371886988e-05
aF0
aF0.00010649733860276873
aF2.7373625931502166e-05
aF0
aF1.1722929745212081e-05
aF4.0554250636949859e-05
aF0.0017670067112812494
aF0.00060721602644348677
aF3.1716130053052921e-05
aF2.0363174112228915e-05
aF0.00039736462504562137
aF0
aF0
aF0
aF1.0741687145181004e-05
aF0
aF0
aF6.7902902681489142e-05
aF0
aF0
aF0
aF7.636416280099729e-43
aF1.7743426872940223e-06
aF0
aF3.0363766806673416e-06
aF0
aF2.3167913725766109e-06
aF0
aF0
aF3.3361521643592032e-05
aF1.749985579424239e-05
aF0.021011769939596834
aF2.0814196007313984e-05
aF0.00044790028210286591
aF0
aF0
aF0
aF0
aF0
aF0
aF3.7358208558105816e-06
aF0
aF0
aF0
aF1.1310270004342288e-05
aF0
aF0
aF0
aF2.6006149921111564e-06
aF0
aF0
aF2.1937504758369491e-05
aF0.0035199636116500584
aF3.9864489165297478e-05
aF3.1430228072985522e-53
aF9.6208486431741862e-05
aF1.3318333178841165e-51
aF6.226961929179689e-05
aF2.5847782264727619e-05
aF1.0963831575348052e-06
aF0.0018031871824065583
aF0.00060271083085762706
aF2.354582189340476e-05
aF0.00018995520809424521
aF8.4051722590274209e-05
aF0.00024628721683494522
aF0
aF2.9410143645233876e-05
aF0
aF0
aF0.0035450877393929355
aF3.3447708573509383e-05
aF1.8231439865103199e-05
aF0
aF0
aF0
aF2.4731981524950456e-05
aF0
aF0
aF0.00013453093812555576
aF0
aF1.7581244921900472e-05
aF0
aF0
aF7.2484300587181819e-05
aF0
aF0
aF0.00014265867460843339
aF5.2414667684149339e-05
aF3.6313419297095175e-05
aF2.9413029039082497e-05
aF0
aF1.3311609800926502e-51
aF0
aF2.2135783726770251e-08
aF0
aF1.5233990637317969e-05
aF0
aF0.00049852393052861896
aF9.9454970608499542e-06
aF0
aF0.00010878534960544858
aF2.6684545429722479e-05
aF1.2535443916569439e-07
aF0
aF0.0001334244142694094
aF0
aF5.9960435427692704e-05
aF1.0882517102168657e-51
aF1.4797993244321643e-05
aF0
aF0
aF0
aF0
aF0
aF0
aF0.00016803990383337594
aF0
aF3.746176262135759e-05
aF4.65684815722932e-10
aF0
aF0
aF0.00030690918737005422
aF0
aF0
aF4.3222929002060735e-08
aF1.3989531088566062e-05
aF0.00058355706780230106
aF0
aF0.00052935718394675208
aF1.8803309964785812e-05
aF0
aF3.7592117998723959e-08
aF4.4729954400388423e-05
aF6.8848500371712382e-05
aF0
aF6.9775621794591227e-05
aF4.9130882307292974e-05
aF0
aF1.5317011657622553e-05
aF3.7185046739114217e-05
aF0
aF0
aF0
aF1.301022055025015e-06
aF0
aF3.412055559731767e-05
aF0
aF1.3245259842146913e-05
aF2.2366582187039269e-05
aF0
aF1.8709293358373384e-05
aF1.9742593109711409e-06
aF0
aF1.6148766562486605e-05
aF2.893018169449897e-05
aF0.00040148167704588455
aF8.4245453852176182e-05
aF0.00024059799844843149
aF0
aF0
aF5.9180834255239556e-06
aF0
aF1.8936188285969525e-05
aF1.2726899930102917e-08
aF2.5640954511084466e-05
aF0
aF0
aF2.5720044794204087e-05
aF0
aF0
aF0
aF1.5472993981465319e-05
aF3.8656409083638645e-05
aF0
aF1.4058304639275432e-05
aF0.0001147051832004165
aF0.0083972369379261957
aF0
aF3.1514042921321072e-08
aF0
aF0
aF5.0342790281216776e-05
aF0
aF6.116095998769748e-05
aF0
aF0
aF0.00017652042298116669
aF7.1486470117022337e-05
aF3.7148585070220624e-06
aF1.5061516158895516e-05
aF0
aF0
aF5.4701683267038858e-05
aF0.00045398303493541641
aF2.320547004770632e-05
aF8.2271643021621286e-05
aF0.00042182450368377113
aF1.4997568121202567e-05
aF6.2246649116086357e-06
aF0
aF4.7431807280481125e-05
aF0
aF5.7735704079557659e-05
aF0
aF0
aF1.7967747277852966e-05
aF2.9440327957277979e-05
aF0
aF0.0002556144430205246
aF3.7677104703891931e-05
aF0
aF0
aF0
aF0.0057698748691981097
aF0
aF9.3160779456476057e-05
aF0.00015475636876807598
aF3.6973784734545059e-05
aF0
aF2.0332011662581404e-05
aF0
aF5.5622514520314094e-05
aF0
aF0.00024955115167521247
aF0
aF0.00012087427944822089
aF8.2685425410504812e-06
aF0
aF1.6374934296904146e-06
aF0
aF4.2521101526837816e-06
aF1.3318333178841165e-51
aF0
aF9.7786293382277584e-60
aF0
aF0
aF8.9315475797511512e-06
aF8.3727978565368084e-06
aF0
aF0
aF0.00013513507614196739
aF3.9471575120307086e-05
aF0
aF9.2760843304448313e-05
aF0
aF0
aF4.3646523730327853e-05
aF0
aF1.0336224553524611e-05
aF0.00014067296229571278
aF0
aF0.000214041118921011
aF0
aF9.9017259279582848e-47
aF0
aF2.5757437263957759e-06
aF0
aF0.00028928636029872134
aF0
aF1.3478578821053076e-05
aF6.4727533963593715e-06
aF0.0016362422538503717
aF0
aF1.4234194405022999e-06
aF0
aF5.9476085646746e-05
aF0
aF0
aF0
aF7.0547596414878582e-06
aF7.7175253224744218e-06
aF0.000157835321711006
aF0
aF9.4260335372899437e-06
aF0
aF0.0003404610259703027
aF0
aF0
aF4.4783754314538408e-06
aF0
aF0
aF5.4923594574084536e-06
aF0
aF0
aF0.00037480915832859794
aF1.8592262364383089e-05
aF0
aF3.6398790576253293e-05
aF1.5088845839718328e-05
aF3.134764343314844e-05
aF0.00049059300825495889
aF8.7482220276769099e-07
aF7.0765857166046619e-08
aF0
aF3.4431437985948849e-05
aF8.5233319694946435e-05
aF0.00013218814777300842
aF1.0837018217822428e-05
aF9.2271052277377954e-05
aF2.6938522423244212e-06
aF6.9070189082906726e-06
aF1.9560404233758526e-05
aF5.0357035779663695e-05
aF0
aF2.2627878433068726e-05
aF0.0002957383033214478
aF0
aF0
aF3.6414669742397054e-05
aF0
aF6.0080572654424749e-05
aF0
aF0
aF0
aF0
aF0.00031089355815513151
aF9.9644577678678164e-06
aF1.5760538685896513e-05
aF4.0026979038773283e-05
aF9.0374891863371596e-06
aF9.2112928379898549e-06
aF0
aF0
aF0
aF4.1704667390165517e-05
aF4.3751404121286519e-05
aF0
aF2.2027446989585737e-05
aF0.00020470587607707003
aF2.6896808296572505e-05
aF9.3695867000300288e-08
aF0.00048026517853608859
aF0.00014306385522013022
aF2.1432559013538643e-05
aF9.8109105096072746e-06
aF0
aF0.00014445678746063728
aF9.6348361681913528e-06
aF1.904031515000787e-09
aF1.5688941578171002e-05
aF0.00060609783090692117
aF0.00039284170663588143
aF0
aF0
aF0.00060727098913055679
aF0
aF0
aF0.00012424973352388483
aF0
aF1.1004556252709652e-05
aF0
aF0
aF9.9354976805140271e-06
aF0.0011232253551221268
aF5.791600943490571e-05
aF0
aF0
aF3.7305010101535395e-05
aF9.2715056355990356e-06
aF0
aF0.0010403550466684885
aF3.4601634107780081e-05
aF1.6339537956024488e-05
aF0.00029999812183649895
aF2.2116316841641498e-06
aF3.8479526331453209e-05
a.