(lp1
F0
aF0
aF0
aF0
aF0
aF0
aF0
aF0
aF0.0010957462227102039
aF0
aF0
aF0
aF0
aF0
aF0
aF0
aF0
aF0
aF5.6894960138840647e-58
aF0
aF0
aF0
aF0
aF0
aF0
aF0
aF0
aF0
aF1.9687943227345382e-48
aF0
aF6.2437983801838913e-46
aF0
aF0
aF2.1188746898893764e-52
aF0
aF8.7013862751580904e-11
aF0
aF0
aF0
aF0
aF0
aF0
aF0
aF0
aF0
aF0
aF0
aF0
aF0
aF0
aF0
aF0
aF0
aF0
aF0
aF0
aF6.4719866239208581e-06
aF0
aF0
aF0
aF0
aF0
aF0
aF0
aF0
aF0
aF0
aF0
aF0
aF0
aF0
aF0
aF0
aF0
aF0
aF0
aF0
aF0
aF0
aF0
aF0
aF0
aF0
aF0
aF0
aF0
aF0
aF0
aF0
aF0
aF0
aF0
aF0
aF0
aF0
aF0
aF0
aF0
aF0.00039355027307322137
aF0
aF0
aF0
aF0
aF0
aF0
aF0
aF0
aF-2.5701950349321183e-08
aF0
aF0
aF0
aF0
aF0
aF0
aF0
aF0
aF0
aF0
aF0
aF0
aF0
aF0
aF0
aF0
aF0
aF0
aF0
aF0
aF0
aF0
aF0
aF0
aF8.2874421338617637e-09
aF0
aF0
aF0
aF0
aF0
aF0
aF0
aF0
aF0
aF0
aF0
aF0
aF0
aF0
aF0
aF0
aF0
aF0
aF0
aF0
aF0
aF0
aF0
aF0
aF0
aF0
aF0
aF0
aF0
aF0
aF0
aF0
aF1.542412765020522e-53
aF0
aF0
aF0
aF0
aF0
aF0
aF0
aF0
aF0
aF0
aF0
aF0
aF0
aF0
aF1.4360825449762716e-09
aF0
aF0
aF8.2874421338617637e-09
aF0
aF0
aF0
aF0
aF0
aF0
aF0
aF0
aF0
aF0
aF0
aF0
aF0
aF0
aF0
aF0
aF0
aF0
aF0
aF0
aF0
aF0
aF0
aF0
aF0
aF0
aF0
aF0
aF0
aF0
aF0
aF0
aF5.9545501520003236e-52
aF0
aF0
aF0
aF0
aF0
aF0
aF0
aF0
aF0
aF2.5879581252776211e-59
aF0
aF0
aF0
aF0
aF0
aF0
aF3.2670542112418542e-06
aF0
aF0
aF0
aF0
aF0
aF0
aF0
aF0
aF6.8202408909444319e-09
aF0
aF0
aF0
aF0
aF0
aF0
aF0.0007093901559255823
aF0
aF0
aF0
aF0
aF0
aF0
aF0
aF0
aF0
aF0
aF0
aF0
aF0
aF0
aF0
aF0
aF0
aF0
aF0
aF0
aF0
aF0
aF0
aF0
aF0
aF0
aF0
aF0
aF0
aF0
aF0
aF0
aF0
aF0
aF0
aF0
aF0
aF0
aF0
aF0
aF0
aF0
aF1.2237664942979119e-08
aF0
aF0
aF0
aF0
aF0
aF0
aF0
aF2.4880047897444436e-40
aF0
aF3.4646971932959031e-10
aF0
aF0
aF0
aF0
aF0
aF0
aF0
aF0
aF0
aF0
aF0
aF5.6464469732338201e-58
aF0
aF0
aF0
aF0
aF0
aF0
aF0
aF0
aF0
aF0
aF0
aF0
aF0
aF0
aF0
aF0
aF0
aF0
aF0
aF0
aF0
aF0
aF0
aF3.4966229479155152e-10
aF7.4810386703102987e-32
aF0
aF0
aF0
aF0
aF0
aF0
aF0
aF0
aF0
aF0
aF0
aF0
aF0
aF0
aF0
aF0
aF0
aF0
aF0
aF0
aF0
aF0
aF0
aF0
aF0
aF0
aF0
aF0
aF0
aF0
aF0
aF0
aF0
aF0
aF0
aF0
aF0
aF0
aF0
aF0
aF0
aF3.7654153236563094e-09
aF0
aF0
aF0
aF2.8646392278991245e-08
aF2.9781988310892612e-10
aF0
aF0
aF0
aF0
aF7.7661353573232942e-07
aF0
aF0
aF0
aF0
aF0
aF0
aF0
aF0
aF0
aF0
aF0
aF0
aF0
aF0
aF0
aF0
aF0
aF0
aF0
aF0
aF0
aF0
aF0
aF0
aF0
aF0
aF0
aF0
aF0
aF0
aF0
aF0
aF0
aF0
aF0
aF0
aF0
aF0
aF1.4519522867819502e-09
aF0
aF0
aF0
aF0
aF0
aF1.360927128404654e-44
aF0
aF0
aF0
aF0
aF0
aF0
aF0
aF0
aF0
aF0
aF0
aF0
aF0
aF7.4668203754506035e-07
aF0
aF0
aF0
aF1.420907320927605e-58
aF0
aF0
aF0
aF0
aF0
aF0
aF0
aF1.9839758774413815e-08
aF0
aF0
aF5.6464469732338201e-58
aF0
aF0
aF0
aF0
aF0
aF0
aF0
aF0
aF0
aF0
aF0
aF0
aF0
aF0
aF0
aF5.6464469732338201e-58
aF0
aF0
aF0
aF0
aF0
aF0
aF0
aF0
aF0
aF0
aF0
aF5.6464469732338201e-58
aF0
aF6.4124041420042933e-12
aF0
aF0
aF0
aF0
aF0
aF0
aF0
aF0
aF0
aF0
aF0
aF0
aF0
aF0
aF0
aF0
aF0
aF0
aF0
aF0
aF2.239362380284095e-07
aF0
aF0
aF0
aF0
aF0
aF0
aF0
aF4.1494512397435175e-09
aF0
aF0
aF0
aF0
aF0
aF0
aF0
aF3.12406720446368e-08
aF0.00085481896817692061
aF0
aF0
aF0
aF0.0003931016326485532
aF0
aF0
aF0
aF0
aF0
aF0
aF0
aF1.7794064646139573e-55
aF0
aF0
aF0
aF0
aF0
aF0
aF0
aF0
aF0
aF0
aF0
aF0
aF0
aF0
aF0
aF0
aF0
aF0
aF0
aF0
aF0
aF1.6183607518668821e-47
aF0
aF0
aF0
aF0
aF0
aF4.1711160308215903e-06
aF0
aF0
aF0
aF0
aF2.0524928179510681e-07
aF0
aF0
aF0
aF0
aF0
aF1.0272238412431941e-08
aF0
aF0
aF0
aF0
aF0
aF0
aF0
aF0
aF0
aF0
aF0
aF0
aF0
aF5.6464469732338201e-58
aF0
aF0
aF0
aF0
aF0
aF0
aF0
aF0
aF0
aF0
aF0
aF0
aF0
aF0
aF0
aF0
aF1.2377544431000057e-05
aF0
aF0
aF0
aF0
aF0
aF0
aF2.0659987747466632e-62
aF0
aF0
aF0
aF0
aF0
aF0
aF5.7437924603756232e-38
aF0
aF0
aF0
aF0
aF0
aF0
aF1.72513645517814e-61
aF0
aF0
aF0
aF0
aF0
aF0
aF0
aF0
aF0
aF0
aF0
aF0
aF0
aF0
aF0
aF0
aF0
aF0
aF0
aF2.239747272359922e-08
aF0
aF0
aF0
aF0
aF0
aF0
aF0
aF0
aF0
aF0
aF0
aF0
aF0
aF0
aF0
aF0
aF0
aF0
aF0
aF0
aF0
aF0
aF0
aF0
aF0
aF0
aF0
aF0
aF0
aF0
aF3.4543359685105558e-08
aF0
aF0
aF1.3445644808910868e-06
aF0
aF0
aF0
aF0
aF0
aF0
aF0
aF0
aF0
aF0
aF0
aF0
aF0
aF0
aF1.7794064646139497e-55
aF0
aF0
aF0
aF0
aF0
aF0
aF0
aF0
aF0
aF0
aF0
aF0
aF0
aF0
aF5.1971200164867688e-07
aF0
aF0
aF0
aF0
aF0
aF0
aF0
aF0
aF1.5424127650205171e-53
aF0
aF0
aF0
aF0
aF0
aF0
aF0
aF0
aF0
aF0
aF0
aF0
aF0
aF0
aF0
aF0
aF0
aF0
aF0
aF0
aF0
aF0
aF0
aF0
aF0
aF0
aF0
aF0
aF0
aF1.8758072289243318e-54
aF0
aF0
aF0
aF0
aF0
aF0
aF0
aF0
aF0
aF0
aF0
aF0
aF0
aF0
aF0
aF0
aF0
aF0
aF0
aF0
aF0
aF0
aF0
aF0
aF0
aF0
aF0
aF0
aF0
aF0
aF0
aF0
aF4.5570557261073875e-41
aF0
aF5.4259262217369711e-44
aF0
aF0
aF0
aF0
aF0
aF0
aF0
aF0
aF0
aF0
aF0
aF0
aF0
aF0
aF0
aF0
aF0
aF0
aF0
aF1.9081274500318979e-09
aF0
aF0
aF0
aF0
aF0
aF0
aF0
aF0
aF0
aF0
aF0
aF0
aF0
aF0
aF0
aF0
aF0
aF0
aF0
aF0
aF0
aF0
aF0
aF1.1430101629240491e-06
aF0
aF0
aF0
aF0
aF0
aF0
aF0
aF0
aF0
aF1.101976694341587e-51
aF0
aF0
aF0
aF1.788881026057507e-09
aF0
aF0
aF0
aF0
aF0
aF0
aF0
aF0
aF0
aF0
aF0
aF0
aF0
aF0
aF0
aF0
aF0
aF0
aF0
aF0
aF0.00064639638677564811
aF2.9629287692530161e-46
aF0
aF2.7260661885539839e-06
aF0
aF0
aF0
aF0
aF0
aF0
aF0
aF0
aF0
aF0
aF0
aF0
aF0
aF0
aF0
aF0
aF0
aF0
aF0
aF0
aF0
aF0
aF0
aF0
aF0
aF0
aF7.6757848941549417e-71
aF0
aF0
aF0
aF0
aF0
aF1.4959046314964194e-40
aF0
aF0
aF0
aF0
aF0
aF0
aF0
aF0
aF0
aF0
aF0
aF0
aF0
aF0
aF0
aF0
aF0
aF0
aF0
aF0
aF0
aF0
aF0
aF0
aF0
aF0
aF0
aF0
aF0
aF0
aF0
aF0
aF0
aF0
aF0
aF0
aF6.2437983801838913e-46
aF0
aF0
aF0
aF0
aF1.8758072289243318e-54
aF0
aF0
aF0
aF0
aF2.0483393114980191e-41
aF0
aF0
aF0
aF0
aF0
aF0
aF0
aF0
aF0
aF0
aF0
aF0
aF0
aF0
aF0
aF0
aF0
aF0
aF0
aF0
aF0
aF0
aF0
aF0
aF0
aF0
aF1.0514328043722025e-08
aF0
aF0
aF4.3750345909289895e-10
aF0
aF0
aF0
aF0
aF0
aF0
aF0
aF0
aF0
aF0
aF0
aF0
aF0
aF0
aF0
aF0
aF0
aF0
aF0
aF0
aF0
aF1.9687943227345401e-48
aF0
aF0
aF0
aF0
aF1.4962964041754284e-10
aF0
aF0
aF0
aF0
aF0
aF0
aF0
aF0
aF0
aF0
aF0
aF0
aF0
aF0
aF0
aF0
aF0
aF0.00091194375349142097
aF0
aF0
aF0
aF0
aF0
aF0
aF0
aF0
aF0
aF0
aF0
aF0
aF0
aF0
aF0
aF0
aF0
aF0
aF0
aF0
aF0
aF0
aF0
aF0
aF0
aF0
aF0
aF0
aF0
aF0
aF0
aF0
aF0
aF0
aF0
aF0
aF0
aF8.4738814532796674e-57
aF0
aF0
aF0
aF1.7794064646139497e-55
aF0
aF0
aF0
aF0
aF0
aF3.4825924242268897e-48
aF0
aF0
aF0
aF0
aF1.3921663009183064e-09
aF0
aF0
aF0
aF5.6464469732338201e-58
aF0
aF0
aF0
aF0
aF0
aF6.8183648029931258e-54
aF0
aF5.6464469732338201e-58
aF0
aF0
aF0
aF0
aF0
aF0
aF0
aF0
aF0
aF0
aF0
aF0
aF0
aF0
aF0
aF0
aF0
aF0
aF0
aF0
aF0
aF0
aF0
aF0
aF0
aF0
aF0
aF4.5570557261073875e-41
aF0
aF0
aF0
aF0
aF0
aF0
aF0
aF0
aF0
aF0
aF-1.0827457570410626e-05
aF0
aF0
aF0
aF0
aF0
aF0
aF0
aF0
aF0
aF0
aF0
aF0
aF0
aF0
aF0
aF0
aF0
aF0
aF0
aF0
aF0
aF0
aF0
aF0
aF0
aF0
aF6.5529639521724648e-45
aF0
aF0
aF0
aF0
aF0
aF0
aF0
aF0
aF0
aF0
aF0
aF0
aF0
aF0
aF0
aF1.7794064646139497e-55
aF0
aF0
aF0
aF0
aF0
aF0
aF0
aF0
aF0.0006063128529329502
aF5.5093550806184863e-10
aF0
aF0
aF0
aF0
aF0
aF0
aF0
aF0
aF2.3330745252750631e-09
aF0
aF0
aF0
aF0
aF0
aF0
aF0
aF0
aF0
aF0
aF0
aF0
aF0
aF0
aF0
aF0
aF0
aF0
aF0
aF0
aF5.4465767248808092e-44
aF5.1402553736850789e-06
aF0
aF0
aF0
aF2.5952504663038831e-07
aF0
aF0
aF0
aF0
aF0
aF5.6063922559955543e-53
aF0
aF0
aF0
aF0
aF0
aF0
aF0
aF0
aF0
aF0
aF0
aF0
aF0
aF0
aF1.7515042052121942e-11
aF0
aF0
aF0
aF0
aF0
aF0
aF0
aF0
aF0
aF0
aF0
aF0
aF3.7524005284741704e-06
aF0
aF0
aF0
aF0
aF0
aF0
aF0
aF0
aF0
aF0
aF0
aF0
aF0
aF0
aF1.8692917776034474e-07
aF0
aF0
aF0
aF0
aF0
aF0
aF0
aF1.9762844956791937e-48
aF0
aF0
aF1.8758072289243318e-54
aF0
aF0
aF6.2201319690807072e-46
aF0
aF0
aF0
aF0
aF0
aF0
aF0
aF0
aF0
aF0
aF0
aF0
aF0
aF0.00093032896410394177
aF0
aF0
aF0
aF0
aF0
aF0
aF0
aF0
aF0
aF0
aF1.751581371589042e-09
aF0
aF0
aF0
aF0
aF0
aF0
aF0
aF0
aF0
aF0
aF0
aF0
aF0
aF0
aF0
aF-1.0582564965620574e-06
aF0
aF0
aF0
aF0
aF0
aF0
aF0
aF7.7198060767699875e-06
aF0
aF0
aF0
aF0
aF0
aF0
aF0
aF0
aF0
aF0
aF0
aF0
aF0
aF0
aF0
aF0
aF0
aF0
aF0
aF0
aF0
aF0
aF0
aF0
aF0
aF0
aF0
aF0
aF0
aF0
aF0
aF0.0013758499219150013
aF0
aF0
aF1.3116150959742126e-05
aF0
aF0
aF0
aF0
aF0
aF0
aF0
aF0
aF0
aF0
aF0
aF0
aF0
aF0
aF0
aF0
aF0
aF0
aF0
aF0
aF8.9777472700703455e-45
aF0
aF0
aF0
aF0
aF0
aF0
aF0
aF0
aF0
aF0
aF0
aF0
aF0
aF0
aF0
aF0
aF0
aF0
aF0
aF0
aF0
aF0
aF0
aF0
aF0
aF0
aF0
aF0
aF0
aF0
aF0
aF0
aF0
aF0
aF0
aF0
aF0
aF2.7092587258172525e-53
aF0
aF0
aF0
aF0
aF0
aF0
aF0
aF0
aF0
aF4.756415991824878e-09
aF0
aF0
aF0
aF0
aF0
aF0
aF0
aF0
aF0
aF1.1343641990058246e-06
aF0
aF0
aF0
aF0
aF0
aF1.1525262172727408e-10
aF0
aF0
aF0
aF0
aF0
aF0
aF0
aF0
aF0
aF0
aF0
aF0
aF0
aF0
aF0.95326239398372759
aF0
aF0.00049760298309817186
aF7.2534186742108893e-11
aF0
aF0
aF0
aF0
aF0
aF0
aF0
aF0
aF0
aF0
aF0
aF0
aF0
aF0
aF0
aF0
aF0
aF0
aF0
aF0
aF0
aF0
aF0
aF0
aF0
aF0
aF0
aF0
aF0
aF0
aF0
aF0
aF0
aF0
aF0.00035594579521704931
aF0
aF0
aF0
aF0
aF0
aF0
aF0
aF0
aF0
aF0
aF0
aF0
aF0
aF0
aF0
aF0
aF0
aF3.7955293341572087e-53
aF0
aF0
aF0
aF0
aF0
aF0
aF5.4946551994830067e-07
aF0
aF0
aF0
aF0
aF0
aF0
aF3.8817516541891121e-54
aF0
aF0
aF0
aF0
aF0
aF0
aF0
aF0
aF0
aF0
aF0
aF0
aF0
aF0
aF0
aF0
aF0
aF0
aF0
aF0
aF0
aF0
aF0
aF0
aF0
aF0
aF0
aF0
aF0
aF0
aF0
aF0
aF0
aF0
aF0
aF0
aF0
aF1.0929364099781039e-08
aF0
aF0
aF1.8082821676055465e-08
aF0
aF0
aF0
aF4.0918329026470068e-53
aF0
aF0
aF0
aF7.3507217471011081e-09
aF0
aF0
aF0
aF0
aF0
aF0
aF0
aF0
aF0
aF0
aF0
aF0
aF0
aF0
aF0
aF0
aF1.7861759069419992e-55
aF0
aF0
aF0
aF0
aF0
aF0
aF0
aF0
aF1.4507569955786718e-08
aF0
aF0
aF0
aF0
aF0
aF0
aF0
aF0
aF0
aF0
aF0
aF0
aF0
aF0
aF0
aF0
aF0
aF0
aF0
aF0
aF0
aF0
aF0
aF0
aF0
aF-1.6861166283665906e-06
aF0
aF0
aF0
aF0
aF0
aF0
aF0
aF0
aF0
aF0
aF0
aF0
aF0
aF0
aF0
aF0
aF0
aF0
aF0
aF0
aF0
aF0
aF0
aF0
aF0
aF0
aF0
aF0
aF0
aF0
aF0
aF0
aF0
aF0
aF0
aF0
aF0
aF0
aF2.7092587258172525e-53
aF0
aF0
aF0
aF0
aF0
aF0
aF0
aF0
aF0
aF0
aF0
aF0
aF0
aF0
aF0
aF0
aF0
aF0
aF0
aF0
aF0
aF0
aF0
aF0
aF0
aF6.9574379139072661e-10
aF0
aF0
aF0
aF0
aF0
aF0
aF1.5206931454536369e-06
aF0
aF0
aF2.1603692984267366e-07
aF0
aF0
aF0
aF0
aF0
aF0
aF0
aF0
aF0
aF0
aF0
aF0
aF0
aF0
aF1.8758072289243318e-54
aF0
aF0
aF0
aF1.6214360694805552e-67
aF0
aF0
aF0
aF0
aF0
aF0
aF0
aF0
aF0
aF0
aF0
aF0
aF0
aF0
aF0
aF0
aF0
aF0
aF0
aF0
aF0
aF0
aF0
aF0
aF0
aF0
aF0
aF0
aF0
aF0
aF0
aF0
aF0
aF0
aF0
aF0
aF0
aF0
aF0
aF1.0615954455425246e-06
aF0
aF0
aF0
aF0
aF0
aF0
aF0
aF1.144845830299854e-06
aF0
aF0
aF0
aF0
aF0
aF0.0022297682648971225
aF0
aF0
aF0
aF0
aF0
aF0
aF0
aF0
aF0
aF0
aF0
aF0
aF6.7585127017553286e-10
aF0
aF0
aF0
aF2.1184703633199166e-56
aF0
aF0
aF0
aF0
aF0
aF0
aF0
aF0
aF0
aF0
aF0
aF0
aF0
aF0
aF0
aF0
aF0
aF0
aF0
aF5.6464469732338201e-58
aF0
aF0
aF0
aF0.00069521599557145037
aF0
aF0
aF0
aF0
aF0
aF0
aF0
aF0
aF0
aF0
aF0
aF0
aF0
aF0
aF0
aF0
aF0
aF0
aF1.7794064646139573e-55
aF0
aF0
aF0
aF0
aF0
aF0
aF0
aF0
aF0
aF0
aF0
aF0
aF0
aF0
aF4.9726585518914598e-06
aF0
aF2.0045439817203198e-52
aF0
aF0
aF0
aF1.8682058608490079e-49
aF0
aF0
aF0
aF0
aF5.6464469732338201e-58
aF0
aF0
aF0
aF0
aF0
aF0
aF0
aF0
aF0
aF0
aF0
aF2.2436678557553772e-48
aF0
aF0
aF0
aF0
aF0
aF0
aF0
aF0
aF0
aF0
aF0
aF0
aF0
aF0
aF0
aF0
aF1.6258456215902097e-52
aF0
aF0
aF0
aF0
aF0
aF1.7794064646139573e-55
aF0
aF0
aF0
aF0
aF0.00028374432833126121
aF0
aF0
aF0
aF0
aF0
aF0
aF1.8758072289243318e-54
aF0
aF0
aF0
aF0
aF0
aF0
aF0
aF0
aF0
aF0
aF0
aF0
aF0
aF0
aF0
aF0
aF0
aF0
aF0
aF0
aF5.6464469732338201e-58
aF0
aF0
aF0
aF0
aF2.7396033056952206e-08
aF0
aF0
aF0
aF0
aF0
aF0
aF0
aF0
aF0
aF3.711970084102531e-10
aF0
aF0
aF0
aF0
aF0
aF0
aF0
aF0
aF0
aF0
aF0
aF0
aF0
aF0
aF0
aF4.9977150866343763e-08
aF0
aF0
aF0
aF0
aF0
aF0
aF0
aF0
aF0
aF0
aF8.7871272628755849e-53
aF0
aF0
aF0
aF0
aF0
aF0
aF0
aF0
aF0
aF0
aF0
aF0
aF0
aF0
aF0
aF0
aF0
aF0
aF0
aF0
aF0
aF0
aF0
aF0
aF0
aF0
aF1.5206931454536368e-05
aF0
aF0
aF0
aF0
aF0
aF0
aF0
aF0
aF0
aF0
aF0
aF0
aF3.0659975482140346e-43
aF0
aF0
aF0
aF0
aF0
aF0
aF1.1865359866981246e-08
aF0
aF0
aF0
aF0
aF0
aF0
aF0
aF0
aF0
aF0
aF0
aF0
aF1.8758072289243318e-54
aF0
aF0
aF7.4263215020553343e-11
aF0
aF0
aF0
aF0
aF0
aF0
aF0
aF0
aF0
aF0
aF0
aF0
aF0
aF0
aF0
aF0
aF0
aF2.8584887181325709e-52
aF0
aF0
aF0
aF0
aF0
aF0
aF0
aF0
aF0
aF0
aF0
aF0
aF0
aF0
aF0
aF0
aF0
aF0
aF0
aF0
aF0
aF0
aF0
aF0
aF0
aF0
aF0
aF0
aF0
aF0
aF0
aF0
aF0
aF0
aF0
aF0
aF0
aF0
aF0
aF0
aF0
aF0
aF0
aF0
aF0
aF0
aF0
aF0
aF0
aF0
aF0
aF0
aF0
aF0
aF0
aF0
aF0
aF0
aF0
aF0
aF0
aF0
aF0
aF0
aF0
aF0
aF0
aF0
aF4.1924279069364077e-24
aF0
aF0
aF0
aF0
aF0
aF0
aF0
aF0
aF0
aF0
aF0
aF7.4771671104137894e-07
aF0
aF0
aF0
aF0
aF0
aF0
aF0
aF0
aF0
aF0
aF0
aF0
aF0
aF0
aF0
aF0
aF0
aF0
aF2.506585146198846e-09
aF0
aF1.8682058608490151e-49
aF0
aF0
aF0
aF0
aF0
aF3.5718635597816403e-09
aF0
aF0
aF0
aF0
aF0
aF0
aF0
aF0
aF0
aF0
aF0
aF0
aF0
aF0
aF0
aF0
aF0
aF0
aF0
aF0
aF0
aF0
aF0
aF0
aF0
aF0
aF0
aF0
aF9.2548548050772221e-45
aF0
aF0
aF0
aF0
aF0
aF0
aF0
aF0
aF7.2114885212269376e-06
aF0
aF0
aF0
aF0
aF0
aF0
aF0
aF0
aF0
aF0
aF0
aF0
aF0
aF0
aF0
aF0
aF0
aF0
aF0
aF0
aF0
aF0
aF0
aF0
aF0
aF0
aF0
aF4.6479351204378246e-48
aF0
aF0
aF0
aF0
aF0
aF0
aF0
aF0
aF0
aF0
aF0
aF3.4048198478336787e-07
aF0
aF0
aF0
aF0
aF0
aF0
aF0
aF0
aF0
aF2.1757489473815951e-07
aF0
aF0
aF0
aF0
aF0
aF0
aF0
aF0
aF0
aF0
aF0
aF0
aF0
aF0.00054705103060584436
aF0
aF0
aF0
aF0
aF0
aF0
aF0
aF0
aF0
aF0
aF0
aF0
aF0
aF0
aF0
aF0
aF0
aF0
aF0
aF0
aF0
aF0
aF0
aF3.217151548228933e-57
aF0
aF0
aF0
aF0
aF0
aF0
aF0
aF0
aF0
aF0
aF0
aF0
aF0
aF0
aF0
aF0
aF2.1429355164525181e-05
aF0
aF0
aF0
aF0
aF0
aF0
aF0
aF0
aF0
aF0
aF0
aF0
aF0
aF0
aF0
aF0
aF0
aF0
aF0
aF0
aF0
aF0
aF0
aF0
aF0
aF0
aF0
aF0
aF0
aF0
aF0
aF0
aF0
aF0
aF0
aF0
aF0
aF0
aF0
aF0
aF0
aF0
aF0
aF0
aF0
aF0
aF0
aF0
aF0
aF0
aF0
aF0
aF0
aF5.606392255995546e-73
aF0
aF0
aF0
aF0
aF0
aF0
aF0.00023361912316895205
aF0
aF0
aF0
aF0
aF0
aF0
aF0
aF0
aF0
aF0
aF0
aF0
aF0
aF0
aF0
aF0
aF0
aF0
aF0
aF0
aF0
aF0
aF0
aF0
aF0
aF0
aF0
aF0
aF4.0641241261618719e-08
aF0
aF0
aF0
aF0
aF0
aF8.536968458459683e-07
aF0
aF0
aF0
aF2.0841099052005282e-06
aF0
aF0
aF0
aF4.5270865799229742e-10
aF0
aF0
aF5.3085482770365041e-08
aF0
aF0
aF0
aF0
aF1.5424127650205171e-53
aF0
aF0
aF0
aF0
aF0
aF0
aF0
aF0
aF5.0536328007820108e-08
aF0
aF0
aF0
aF0
aF0
aF0
aF0
aF0
aF0
aF0
aF0
aF0
aF0
aF0
aF1.5424127650205171e-53
aF0
aF0
aF0
aF0
aF0
aF0
aF0
aF0
aF0
aF0
aF0
aF0
aF0
aF0
aF0
aF0
aF0
aF0
aF0
aF0
aF1.1186324031967781e-06
aF0
aF0
aF4.3403322324640998e-09
aF0
aF0
aF0
aF0
aF0
aF0
aF0
aF0
aF0
aF0
aF0
aF0
aF0
aF0
aF0
aF0
aF0
aF0
aF6.1720997535672584e-41
aF2.7092587258172525e-53
aF0
aF0
aF0
aF0
aF0
aF0
aF0
aF0
aF0
aF0
aF0
aF0
aF0
aF0
aF0
aF0
aF6.4716950013722956e-53
aF0
aF0
aF0
aF0
aF0
aF0
aF0
aF0
aF0
aF0
aF0
aF0
aF0
aF0
aF0
aF0
aF0
aF0
aF0
aF0
aF0.00055876578293365153
aF0
aF7.2215806634531667e-07
aF0
aF0
aF0
aF0
aF0
aF0
aF0
aF0
aF0
aF0
aF0
aF0
aF0
aF0
aF0
aF0
aF1.1836285297392027e-06
aF0
aF0
aF0
aF0
aF0
aF0
aF0
aF0
aF6.643241865918566e-37
aF0
aF0
aF0
aF0
aF0
aF0
aF0
aF4.1494512397435175e-09
aF0
aF0
aF0
aF0
aF0
aF0
aF0
aF0
aF0
aF0
aF0
aF0
aF0
aF0
aF0
aF0
aF0
aF0
aF0
aF0
aF1.3480954652368146e-06
aF0
aF0
aF0
aF0
aF0
aF1.7794064646139573e-55
aF0
aF0
aF0
aF0
aF0
aF0
aF0
aF0
aF0
aF0
aF0
aF0
aF0
aF0
aF2.497939545437007e-49
aF0
aF0
aF0
aF0
aF0
aF0
aF0
aF0
aF0
aF0
aF0
aF0
aF0
aF0
aF0
aF0
aF0
aF1.6255460411661084e-67
aF0
aF0
aF0
aF0
aF0
aF1.0565515345031718e-06
aF0
aF0
aF0
aF6.8183648029931258e-54
aF0
aF0
aF1.9762844956791937e-48
aF0
aF1.5224331093154357e-06
aF0
aF0
aF0
aF0
aF0
aF0
aF0
aF0
aF0
aF0
aF1.9739408126322547e-06
aF0
aF0
aF0
aF0
aF0
aF0
aF0
aF0
aF0
aF0
aF0
aF0
aF0
aF0
aF0
aF0
aF0
aF0
aF0
aF0
aF0
aF0
aF0
aF0
aF0
aF0
aF0
aF0
aF0
aF0
aF0
aF0
aF0
aF0
aF0
aF0
aF0
aF0
aF0
aF0
aF0
aF0
aF0
aF0
aF0
aF0
aF4.0918329026470068e-53
aF0
aF0
aF0
aF0
aF0
aF0
aF0
aF0
aF0
aF0
aF0
aF0
aF0
aF0
aF0
aF0
aF0
aF0
aF0
aF0
aF0
aF0
aF0
aF0
aF0
aF0
aF0
aF0
aF0
aF0
aF0
aF0
aF0
aF0
aF0
aF0
aF0
aF0
aF0
aF3.5179195081202e-44
aF0
aF0
aF0
aF0
aF0
aF0
aF0
aF0
aF0
aF0
aF0
aF0
aF0
aF0
aF0
aF0
aF0
aF0
aF0
aF0
aF0
aF0
aF0
aF0
aF0
aF0
aF0
aF0
aF0
aF0
aF0
aF0
aF0
aF0
aF0
aF1.6319821152841322e-09
aF0
aF0
aF0
aF0
aF0
aF0
aF0
aF0
aF0
aF0
aF0
aF0
aF0
aF0.0011021936581749158
aF0
aF6.9041277690429669e-10
aF0
aF0
aF0
aF0
aF0
aF0
aF0
aF0
aF0
aF0
aF0
aF0
aF0
aF0
aF0
aF0.00024857166410917602
aF0
aF0
aF0
aF0
aF0
aF0
aF0
aF0
aF0
aF0
aF0
aF0
aF0
aF0
aF0
aF0
aF0
aF0
aF0
aF0
aF0
aF0
aF0
aF0
aF0
aF0
aF0
aF0
aF0
aF1.7582026953695663e-52
aF0
aF0
aF0
aF0
aF0
aF0
aF0
aF0
aF0
aF1.7794064646139573e-55
aF3.8495824584475272e-41
aF0
aF0
aF0
aF0
aF6.7215977424063942e-10
aF0
aF0
aF0
aF0
aF0
aF0
aF0
aF0
aF0
aF0
aF0
aF0
aF0
aF0
aF0
aF0
aF0
aF0
aF0
aF0
aF6.2201319690806838e-46
aF0
aF0
aF0
aF0
aF0.00097022852738290119
aF0
aF0
aF0
aF0
aF0
aF0
aF0
aF0
aF0
aF0
aF0
aF0
aF0
aF1.9687943227345382e-48
aF0
aF0
aF6.8183648029931258e-54
aF0
aF0
aF0
aF0
aF0
aF0
aF0
aF0
aF0
aF0
aF0
aF0
aF0
aF0
aF0
aF0
aF0
aF0
aF0
aF0
aF0
aF0
aF0
aF0
aF0
aF0
aF0.0007437730951287523
aF0
aF2.3362627747248026e-46
aF0
aF1.3222548571419429e-06
aF0
aF0
aF0
aF0
aF0
aF0
aF0
aF6.7271535234571476e-62
aF0
aF0
aF0
aF0
aF5.6464469732338201e-58
aF0
aF0
aF0
aF0
aF0
aF0
aF0
aF0
aF0
aF0
aF0
aF0
aF0
aF0
aF0
aF0
aF0
aF0
aF0
aF0
aF0
aF0
aF0
aF0
aF0
aF0
aF0
aF0
aF0
aF1.299831512076586e-06
aF0
aF0
aF0
aF0
aF0
aF0
aF0
aF0
aF0
aF0
aF0
aF0
aF0
aF0
aF0
aF0
aF0
aF0
aF0
aF0
aF0
aF0
aF0
aF0
aF0
aF2.0931051663024645e-53
aF0
aF0
aF0
aF0
aF0
aF0
aF0
aF0
aF0
aF0
aF0
aF0
aF0
aF3.2193017778821243e-09
aF0
aF0
aF0
aF0
aF0
aF0
aF0
aF0
aF0
aF0
aF0
aF0
aF0
aF0
aF0
aF0
aF0
aF0
aF0
aF0
aF0
aF0
aF0
aF0
aF0
aF0
aF0
aF0
aF0
aF0
aF0
aF0
aF0
aF0
aF0
aF0
aF0
aF0
aF0
aF0
aF0
aF0
aF0
aF0
aF0
aF0
aF0
aF0
aF0
aF0
aF0
aF0
aF0
aF0
aF0
aF0
aF0
aF0
aF0
aF0
aF0
aF0
aF0
aF0
aF1.5424127650205171e-53
aF0
aF0
aF0
aF0
aF0
aF0
aF0
aF0
aF0
aF0
aF0
aF0
aF0
aF0
aF0
aF0
aF4.7740741617839444e-10
aF0
aF0
aF0
aF0
aF0
aF0
aF7.1873004104138611e-53
aF0
aF0
aF0
aF0
aF0
aF0
aF0
aF0
aF0
aF0
aF0
aF0
aF0
aF0
aF0
aF0
aF0
aF0
aF1.7794064646139573e-55
aF0
aF0
aF0
aF0
aF0
aF0
aF0
aF0
aF0
aF0
aF5.6464469732338201e-58
aF0
aF0
aF0
aF0
aF0
aF6.5939689246292449e-06
aF0
aF0
aF0
aF0
aF0
aF0
aF0
aF0.0011054439120083666
aF0
aF0
aF0
aF0
aF0
aF0
aF0
aF0
aF0
aF0
aF0
aF0
aF0
aF0
aF0
aF0
aF0
aF0
aF0
aF0
aF0
aF0
aF0
aF0
aF0
aF0
aF0
aF0
aF0
aF0
aF2.3281154605525872e-08
aF0
aF0
aF0
aF0
aF0
aF0
aF0
aF0
aF0
aF0
aF0
aF0
aF1.192436973851639e-52
aF0
aF0
aF0
aF0
aF0
aF0
aF0
aF0
aF0
aF0
aF0
aF0
aF0
aF0
aF0
aF0
aF0
aF0
aF0
aF0
aF0
aF0
aF0
aF0
aF0
aF0
aF0
aF0
aF0
aF0
aF0
aF0
aF0
aF0
aF0
aF0
aF0
aF0
aF0
aF0
aF0
aF0
aF0
aF0
aF0
aF0
aF0
aF0
aF0
aF0
aF0
aF0
aF7.1550047442100637e-48
aF0
aF0
aF0
aF0
aF0
aF0
aF0
aF0
aF0
aF0
aF0
aF0
aF0
aF0
aF0
aF0.0013666564437394095
aF0
aF0
aF0
aF0
aF0
aF0
aF0
aF0
aF0
aF0
aF0
aF0
aF0
aF0
aF0
aF0
aF0
aF0
aF0
aF0
aF0
aF0
aF0
aF0
aF0
aF0
aF0
aF0
aF0
aF0
aF0
aF0
aF0
aF0
aF0
aF0
aF0
aF0
aF0
aF0
aF0
aF0
aF0
aF0
aF0
aF0
aF0
aF0
aF0
aF0
aF0
aF0
aF0
aF0
aF0
aF0
aF0
aF0
aF0
aF0
aF0
aF0
aF0
aF0
aF0
aF0
aF0
aF0
aF5.1402906574200426e-50
aF0
aF0
aF1.4403980207789314e-09
aF0
aF0
aF0
aF0
aF0
aF0
aF0
aF0
aF1.0553758524360602e-43
aF0
aF0
aF0
aF0
aF0
aF0
aF0
aF0
aF0
aF0
aF0
aF0
aF0
aF0
aF1.7658464259676829e-06
aF0
aF0
aF0
aF0
aF0
aF0
aF0
aF0
aF0
aF0
aF0
aF0
aF0
aF0
aF0
aF5.322468196007961e-07
aF0
aF0
aF0
aF0
aF0
aF0
aF0
aF0
aF0
aF0
aF0
aF0
aF0
aF0
aF0
aF0
aF0
aF0
aF0
aF1.1836213334670254e-47
aF6.2437983801838913e-46
aF0
aF0
aF0
aF0
aF0
aF0
aF0
aF0
aF0
aF5.6464469732338201e-58
aF0
aF0
aF0
aF0
aF0
aF0
aF3.0850319005749066e-11
aF0
aF0
aF0
aF0
aF0
aF0
aF0
aF0
aF0
aF0
aF5.7602442105765809e-11
aF0
aF0
aF0
aF0
aF0
aF0
aF0
aF0
aF0
aF0
aF0
aF0
aF0
aF0
aF0
aF0
aF0
aF6.8183648029931258e-54
aF0
aF0
aF2.0189271309612036e-07
aF0
aF0
aF0
aF0
aF0
aF0
aF0
aF0
aF0
aF1.5945520230966076e-56
aF0
aF0
aF0
aF0
aF0
aF0
aF0
aF0
aF0
aF0
aF0
aF0
aF1.9687943227345382e-48
aF0
aF2.7174619740498833e-11
aF0
aF0
aF0
aF0
aF0
aF0
aF0
aF0
aF0
aF0
aF0
aF0
aF5.2357068773788813e-43
aF0
aF0
aF0
aF0
aF0
aF0
aF0
aF0
aF2.5883993738749682e-13
aF0
aF0
aF0
aF0
aF0
aF0
aF0
aF0
aF1.2353989540773185e-06
aF0
aF0
aF0
aF0
aF0
aF0
aF0
aF0
aF0
aF0
aF0
aF0
aF0
aF0
aF0
aF0
aF0
aF0
aF0
aF0
aF0
aF0
aF0
aF0
aF0
aF2.1638905017822518e-56
aF0
aF0
aF0
aF0
aF0
aF0
aF0
aF0
aF0
aF0
aF0
aF0
aF0
aF0
aF0
aF0
aF0
aF0
aF0
aF0
aF0
aF0
aF0
aF0
aF0
aF0
aF0
aF0
aF0
aF0
aF0
aF0
aF0
aF0
aF0
aF0
aF0
aF0
aF0
aF0
aF0
aF0
aF0
aF0
aF1.299831512076586e-06
aF0
aF0
aF0
aF0
aF0
aF0
aF0
aF0
aF0
aF0
aF0
aF0
aF0
aF0
aF0
aF0
aF0
aF0
aF0
aF0
aF0
aF0
aF0
aF0
aF0
aF0
aF0
aF0
aF0
aF0
aF0
aF0
aF0
aF0
aF0
aF0
aF0
aF7.412749592640278e-42
aF0
aF0
aF0
aF0
aF0
aF0
aF0
aF0
aF0
aF0
aF0
aF1.0483157904827789e-40
aF2.9814683767625117e-10
aF0
aF0
aF0
aF0
aF0
aF0
aF0
aF0
aF0
aF0
aF0
aF0
aF0
aF0
aF0
aF0
aF0
aF0
aF0
aF0
aF0
aF0
aF8.8192946533639146e-62
aF0
aF0
aF1.6106061353150807e-09
aF0
aF0
aF0
aF0
aF0
aF0
aF0
aF0
aF0
aF2.4204034104305426e-52
aF0
aF0
aF0
aF0
aF0
aF0
aF0
aF0
aF0
aF0
aF0
aF0
aF0
aF0
aF0
aF0
aF0
aF0
aF0
aF0
aF0
aF3.0775868244657825e-07
aF0
aF0
aF2.5946913077842413e-09
aF0.00091531764597500257
aF0
aF0
aF0
aF0
aF0
aF7.9468772247067986e-49
aF0
aF0
aF0
aF0
aF0
aF0
aF0
aF0
aF0
aF0
aF0
aF0
aF0
aF0
aF0
aF0
aF0
aF6.0662106035197493e-08
aF0
aF0
aF0
aF0
aF0
aF0
aF0
aF0
aF0
aF1.0089335998862179e-09
aF0
aF0
aF0
aF0
aF1.3229719419781082e-41
aF0
aF0
aF0
aF0
aF0
aF0
aF0
aF0
aF0
aF0
aF0
aF0
aF0
aF0
aF1.3744267517834957e-09
aF0
aF0
aF0
aF0
aF0
aF0
aF0
aF0
aF0
aF0
aF0
aF0
aF0
aF0
aF0
aF0
aF0
aF0
aF0
aF0
aF0
aF0
aF0
aF0
aF0
aF0
aF0
aF0
aF0
aF0
aF0
aF0
aF0
aF0
aF0
aF0
aF0
aF0
aF0
aF0
aF0
aF0
aF0
aF0
aF0
aF0
aF0
aF0
aF0
aF0
aF0
aF0
aF0
aF0
aF0
aF0
aF0
aF0
aF0
aF0
aF0
aF0
aF0
aF0
aF0
aF0
aF0
aF0
aF0
aF0
aF0
aF0
aF0
aF0
aF7.9114521897278045e-07
aF0
aF0
aF0
aF1.203430451724637e-09
aF0
aF6.4335467355810068e-11
aF0
aF0
aF0
aF0
aF0
aF1.5364464640788813e-54
aF0
aF0
aF0
aF0
aF0
aF0
aF1.8449108376788943e-06
aF0
aF0
aF0
aF0
aF0
aF0
aF7.796983991008793e-41
aF0
aF0
aF0
aF0
aF0
aF0
aF0.00013114347037188902
aF0
aF0
aF0
aF0
aF0
aF0
aF0
aF0
aF0
aF0
aF0
aF0
aF0
aF1.1855036441123757e-08
aF0
aF9.2195854415530996e-10
aF0
aF0
aF0
aF0
aF0
aF0
aF0
aF0
aF0
aF7.4251993564935596e-06
aF0
aF0
aF0
aF0
aF2.8465358281619716e-07
aF0
aF0
aF0
aF0
aF0
aF0
aF0
aF0
aF0
aF0
aF0
aF0
aF0
aF0
aF0
aF0
aF0
aF0
aF0
aF0
aF0
aF0
aF0
aF0
aF0
aF0
aF0
aF0
aF0
aF0
aF0
aF0
aF0
aF0
aF0
aF0
aF2.9723399203568506e-60
aF0
aF0
aF0
aF0
aF0
aF0
aF0
aF0
aF0
aF3.9752041661895117e-08
aF0
aF0
aF0
aF0
aF0
aF0
aF0
aF0
aF0
aF0
aF0
aF0
aF0
aF0
aF0
aF0
aF0
aF0
aF0
aF0
aF0
aF0
aF0
aF0
aF0
aF0
aF0
aF0
aF0
aF0
aF0
aF0
aF0
aF0
aF0
aF0
aF0
aF0
aF0
aF1.6145990158648663e-06
aF0
aF0
aF0
aF0
aF0
aF0
aF0
aF0
aF0
aF0
aF0
aF1.571879784683089e-06
aF0
aF0
aF0
aF0
aF0
aF0
aF0
aF0
aF0
aF0
aF0
aF0
aF0
aF0
aF0
aF0
aF0
aF2.3804535526794497e-35
aF0
aF0.0010942317144524373
aF0
aF0
aF0
aF0
aF0
aF0
aF0
aF0
aF0
aF2.1201350162873007e-06
aF0
aF0
aF0
aF0
aF0
aF0
aF0
aF0
aF0
aF0
aF3.2940388475920874e-07
aF0
aF0
aF0
aF0
aF0
aF0
aF0
aF0
aF0
aF0
aF0
aF0
aF0
aF0
aF0
aF4.4524470988904268e-06
aF0
aF0
aF0
aF0
aF0
aF0
aF4.6610399573049301e-06
aF0
aF0
aF0
aF0
aF0
aF0
aF0
aF0
aF0
aF0
aF0
aF0
aF0
aF1.788881026057507e-09
aF0
aF0
aF0
aF0
aF0
aF0
aF0
aF0
aF0
aF0
aF0
aF0
aF0
aF0
aF0
aF0
aF0
aF0
aF0.00091362747816661966
aF0
aF0
aF0
aF0
aF0
aF0
aF0
aF0
aF0
aF0
aF0
aF0
aF0
aF0
aF0
aF0
aF0
aF0
aF0
aF1.6183607518668877e-47
aF0
aF0
aF0
aF0
aF0
aF0
aF0
aF0
aF0
aF0
aF0
aF0
aF0
aF0
aF0
aF0
aF0
aF0
aF0
aF0
aF0
aF3.0695301904785127e-06
aF0
aF1.9925253099683161e-08
aF0
aF0
aF0
aF0
aF0
aF0
aF0
aF0
aF0
aF0
aF0
aF0
aF0
aF1.4715507541386451e-07
aF0
aF0
aF0
aF0
aF7.1550047442100637e-48
aF0
aF0
aF0
aF0
aF0
aF0
aF0
aF0
aF0
aF0
aF0
aF0
aF0
aF0
aF0
aF3.3519236558729728e-69
aF0
aF0
aF5.5349668402593568e-06
aF0
aF0
aF0
aF0
aF0
aF0
aF0
aF0
aF0
aF1.7794064646139497e-55
aF0
aF0
aF0
aF0.0077259795960822157
aF0
aF0
aF0
aF0
aF0
aF0
aF0
aF0
aF0
aF1.0341174427492798e-10
aF0
aF0
aF0
aF0
aF0
aF0
aF0
aF0
aF0
aF5.9365153375630728e-34
aF0
aF0
aF0
aF6.2799010327482985e-07
aF0
aF0
aF0
aF0
aF9.3302675729040937e-08
aF4.9556517358989436e-49
aF2.1638905017822518e-56
aF0
aF0
aF0
aF0
aF0
aF0
aF0
aF0
aF0
aF0
aF6.5502631298829975e-09
aF1.7794064646139497e-55
aF0
aF0
aF0
aF0
aF0
aF0
aF0
aF0
aF0
aF0
aF0
aF0
aF0
aF0
aF0.00036514489212431396
aF0
aF0
aF0
aF0
aF0
aF0
aF0
aF1.7794064646139497e-55
aF0
aF0
aF0
aF0
aF0
aF0
aF0
aF0
aF0
aF0
aF0
aF0
aF0
aF0
aF0
aF0
aF0
aF5.6464469732338201e-58
aF0
aF0
aF0
aF9.1143667255946268e-53
aF0
aF0
aF1.3747351687086451e-09
aF0
aF0
aF0
aF5.851956822092288e-09
aF0
aF0
aF0
aF0
aF0
aF0
aF0
aF9.2739810119046002e-07
aF0
aF0
aF0
aF4.9344331462424619e-70
aF0
aF0
aF0
aF0
aF0
aF0
aF0
aF0
aF0
aF0
aF0
aF0
aF0
aF0
aF0
aF0
aF0
aF0
aF0
aF0
aF0
aF0
aF0
aF0
aF0
aF0
aF0
aF0
aF0
aF0
aF0
aF0
aF0
aF2.1638905017822518e-56
aF0
aF0
aF0
aF0
aF0
aF0
aF0
aF0
aF0
aF0
aF0
aF0
aF5.6702713722894383e-16
aF0
aF0
aF0
aF0
aF1.7233589504992475e-05
aF0
aF0
aF0
aF0
aF0
aF0
aF0
aF0
aF0
aF0
aF0
aF0
aF0
aF0
aF0
aF0
aF0
aF0
aF0
aF0
aF0
aF0
aF0
aF1.1418641695360092e-06
aF0
aF0
aF0
aF0
aF0
aF0
aF0
aF0
aF0
aF0
aF0
aF0
aF0
aF0
aF0
aF0
aF0
aF0
aF0
aF0
aF0
aF0
aF0
aF0
aF0
aF0
aF0
aF0
aF0
aF0
aF0
aF0
aF0
aF0
aF0
aF0
aF0
aF0
aF0
aF0
aF0
aF0
aF0
aF0
aF0
aF0
aF0
aF7.2254501616675132e-54
aF0
aF0
aF0
aF0
aF0
aF0
aF0
aF0
aF0
aF0
aF0
aF0
aF0
aF4.0918329026470068e-53
aF0
aF0
aF0
aF0
aF0
aF1.5444733567588161e-06
aF0
aF0
aF0
aF0
aF2.4541474150162098e-07
aF0
aF0
aF0
aF0
aF0
aF0
aF0
aF0
aF0
aF0
aF0
aF0
aF0
aF0
aF0
aF0
aF0
aF0
aF0
aF0
aF0
aF0
aF0
aF0
aF4.2083336367433924e-11
aF0
aF0
aF0
aF0
aF0
aF0
aF0
aF0
aF4.0918329026470068e-53
aF0
aF0
aF0
aF0
aF0
aF0
aF0
aF0
aF0
aF0
aF0
aF0
aF0
aF0
aF0
aF0
aF0
aF1.9932543088464849e-09
aF0
aF0
aF1.7794064646139497e-55
aF0
aF0
aF0
aF0
aF0
aF0
aF0
aF0
aF0
aF0
aF0
aF0
aF0
aF0
aF0
aF0
aF0
aF0
aF0
aF0
aF0
aF0
aF0
aF0
aF0
aF0
aF0
aF0
aF0
aF0
aF0
aF0
aF0
aF0
aF1.1225035984780862e-09
aF0
aF0
aF0
aF0
aF0
aF0
aF0
aF0
aF0
aF0
aF0
aF0
aF0
aF0
aF0
aF0
aF0
aF0
aF0
aF0
aF6.4124041420042933e-12
aF0
aF0
aF0
aF5.6464469732338201e-58
aF0
aF0
aF0
aF0
aF0
aF0
aF0
aF0
aF0
aF0
aF0
aF0
aF0
aF0
aF5.6126506197627347e-07
aF0
aF0
aF0
aF0
aF8.1563604774516176e-57
aF0
aF0
aF0
aF0
aF0
aF0
aF0
aF0
aF0
aF0
aF0
aF0
aF0
aF0
aF0
aF0
aF0
aF0
aF0
aF0
aF0
aF0
aF0
aF0
aF0
aF0
aF0
aF0
aF0
aF0
aF0.00063090649871860578
aF0
aF0
aF0
aF0
aF0
aF0
aF0
aF0
aF0
aF0
aF0
aF0
aF0
aF0
aF0
aF0
aF0
aF0
aF0
aF0
aF0
aF0
aF0
aF0
aF0
aF0
aF0
aF0
aF0
aF0
aF0
aF0
aF0
aF0
aF0
aF0
aF0
aF0
aF0
aF0
aF0
aF0
aF5.4636320882443519e-07
aF0
aF1.742535341517778e-09
aF0
aF0
aF0
aF0
aF0
aF6.5100716711991027e-07
aF0
aF9.007445632519007e-07
aF0
aF0
aF0
aF0
aF0
aF0
aF0
aF0
aF0
aF0
aF0
aF0
aF0
aF0
aF0
aF2.933003062576605e-07
aF9.4146776011426053e-10
aF0
aF0
aF0
aF0
aF0
aF0
aF0
aF0
aF0
aF0
aF0
aF0
aF0
aF0
aF0
aF0
aF0
aF0
aF0
aF0
aF0
aF0
aF0
aF0
aF0
aF0
aF0
aF0
aF0
aF0
aF0
aF0
aF0
aF0
aF0
aF0
aF0
aF0
aF0
aF0
aF0
aF0
aF0
aF0
aF0
aF0
aF0
aF0
aF0
aF0
aF0
aF0
aF0
aF0
aF0
aF0
aF0
aF0
aF0
aF0
aF0
aF0
aF0
aF0
aF0
aF0
aF0
aF0
aF0
aF0
aF0
aF0
aF0
aF0
aF0
aF0
aF0
aF0
aF0
aF0
aF0
aF0
aF0
aF1.2237664942979119e-08
aF0
aF0
aF0
aF0
aF0
aF1.8843894024027305e-52
aF0
aF0
aF0
aF0
aF0
aF0
aF0
aF0
aF0
aF0
aF0
aF0
aF2.2583375331195571e-52
aF0
aF0
aF0
aF0
aF0
aF0
aF0
aF0
aF2.9919685185757696e-07
aF0
aF0
aF0
aF0
aF0
aF0
aF0
aF0
aF0
aF0
aF0
aF0
aF0
aF0
aF0
aF0
aF0
aF0
aF0
aF0
aF0
aF0
aF0
aF0
aF0
aF0
aF0
aF5.6464469732338201e-58
aF0.00061639298469735176
aF0
aF0
aF0
aF0
aF0
aF0
aF0
aF0
aF0
aF0
aF0
aF3.4523211091371412e-06
aF0
aF5.6464469732338201e-58
aF0
aF0
aF0
aF0
aF0
aF0
aF0
aF0
aF0
aF0
aF0
aF0
aF0
aF0
aF0
aF0
aF0
aF0
aF0
aF0
aF0
aF0
aF0
aF0
aF1.5424127650205171e-53
aF1.4317102699893297e-12
aF0
aF0
aF0
aF0
aF0
aF0
aF0
aF0
aF0
aF0
aF0
aF0
aF0
aF9.9661381540241557e-55
aF0
aF0
aF0
aF0
aF0
aF0
aF0
aF0
aF0
aF0
aF0
aF0
aF0
aF0
aF0
aF3.4523211091371412e-06
aF0
aF0
aF0
aF0
aF0
aF0
aF0
aF0
aF1.0499787146176208e-08
aF0.0021351976221978177
aF0
aF0
aF0
aF0
aF0
aF0
aF0
aF0
aF0
aF0
aF0
aF0
aF0
aF0
aF0
aF0
aF0
aF1.5959587690164616e-07
aF0
aF0
aF0
aF0
aF0
aF0
aF0
aF0
aF3.6166228408365597e-09
aF0
aF0
aF2.8366096631933046e-09
aF0
aF0
aF0
aF0
aF0
aF0
aF0
aF0
aF0
aF0
aF0
aF0
aF0
aF0
aF0
aF0
aF0
aF0
aF0
aF0
aF0.0015239379242621195
aF0
aF0
aF0
aF0
aF0
aF0
aF0
aF0
aF0
aF0
aF0
aF0
aF0
aF0
aF0
aF0
aF0
aF0
aF0
aF0
aF3.0512643209212736e-08
aF0
aF5.6464469732338201e-58
aF0
aF0
aF0
aF0
aF0
aF5.6464469732338201e-58
aF0
aF0
aF0
aF0
aF0
aF0
aF0
aF0
aF0
aF0
aF0
aF0
aF0
aF0
aF0
aF-3.6594650321352301e-07
aF0
aF0
aF0
aF0
aF5.6464469732338201e-58
aF0
aF0
aF0
aF0
aF0
aF0
aF0
aF0
aF0
aF0
aF0
aF0
aF0
aF0
aF0
aF0
aF0
aF0
aF0
aF0
aF0
aF0
aF0
aF0
aF0
aF0
aF0
aF0
aF0
aF0
aF0
aF0
aF0
aF0
aF0
aF0
aF0
aF0
aF0
aF0
aF0
aF0
aF0
aF0
aF0
aF0
aF0
aF0
aF0
aF0
aF5.6464469732338201e-58
aF0
aF0
aF0
aF0
aF0
aF0
aF0
aF0
aF0
aF0
aF0
aF0
aF0
aF0
aF0
aF0
aF0
aF0
aF0
aF0
aF0
aF0
aF0
aF0
aF5.6464469732338201e-58
aF0
aF0
aF0
aF0
aF0
aF0
aF0
aF0
aF0
aF0
aF0
aF0
aF0
aF0
aF0
aF0
aF0
aF0
aF0
aF0.0088952338696101606
aF0
aF2.6578949284695114e-11
aF0
aF0
aF1.0169818083198609e-09
aF0
aF0
aF0
aF0
aF9.5596096423675904e-13
aF0
aF0
aF0
aF0
aF0
aF1.0150078955164495e-06
aF0
aF0
aF0
aF0
aF0
aF0
aF0
aF0
aF0
aF0
aF0
aF0
aF0
aF0
aF0
aF1.542412765020522e-53
aF0
aF0
aF0
aF0
aF0
aF0
aF0
aF0
aF0
aF0
aF0
aF0
aF0
aF0
aF0
aF0
aF0
aF1.6460134832632784e-13
aF0
aF0
aF0
aF0
aF0
aF0
aF2.3806933788804235e-81
aF0
aF0
aF1.8758072289243318e-54
aF0
aF0
aF0
aF0
aF0
aF0
aF0
aF0
aF0
aF0
aF0
aF0
aF0
aF0
aF0
aF0
aF0
aF0
aF0
aF0
aF0
aF0
aF5.6464469732338201e-58
aF0
aF0.0027343432255732703
aF0
aF0
aF0
aF0
aF0
aF0
aF0
aF0
aF0
aF0
aF0
aF0
aF0
aF0
aF0
aF0
aF0
aF0
aF0
aF0
aF0
aF0
aF0
aF0
aF0
aF0
aF0
aF0
aF0
aF0
aF0
aF0
aF0
aF0
aF0
aF0
aF0
aF0
aF0
aF0
aF0
aF0
aF0
aF0
aF0
aF0
aF0
aF0
aF0
aF0
aF0
aF0
aF0
aF5.551074262270475e-44
aF0
aF0
aF0
aF0
aF0
aF0
aF0
aF0
aF0
aF0
aF0
aF0
aF0
aF0
aF0
aF0
aF0
aF0
aF0
aF0
aF0
aF0
aF0
aF0
aF0
aF0
aF0
aF0
aF0
aF0
aF0
aF0
aF0
aF0
aF0
aF0
aF0
aF0
aF0
aF0
aF0
aF0
aF0
aF0
aF0
aF0
aF0
aF1.9669264408765619e-68
aF0
aF0
a.